(lp0
I5000
aI5000
aI5000
aI5000
aI5000
aI5000
aI5000
aI5000
aI5000
aI5000
aI5000
aI5000
aI5000
aI5000
aI5000
aI5000
aI5000
aI5000
aI5000
aI5000
aI5000
aI5000
aI5000
aI5000
aI5000
aI5000
aI5000
aI5000
aI5000
aI5000
aI5000
aI5000
aI5000
aI5000
aI5000
aI5000
aI5000
aI5000
aI5000
aI5000
aI5000
aI5000
aI5000
aI5000
aI5000
aI5000
aI5000
aI5000
aI5000
aI5000
aI5000
aI5000
aI5000
aI5000
aI5000
aI5000
aI5000
aI5000
aI5000
aI5000
aI5000
aI5000
aI5000
aI5000
aI5000
aI5000
aI5000
aI5000
aI5000
aI5000
aI5000
aI5000
a.