(dp0
I1
(dp1
I2
(lp2
(dp3
S'path'
p4
(lp5
I1
aI7
aI2
asS'cost'
p6
I2
sa(dp7
g4
(lp8
I1
aI16
aI4
aI2
asg6
I3
sa(dp9
g4
(lp10
I1
aI7
aI19
aI13
aI2
asg6
I4
sa(dp11
g4
(lp12
I1
aI3
aI10
aI12
aI2
asg6
I4
sa(dp13
g4
(lp14
I1
aI16
aI10
aI12
aI2
asg6
I4
sasI3
(lp15
(dp16
g4
(lp17
I1
aI3
asg6
I1
sa(dp18
g4
(lp19
I1
aI16
aI10
aI3
asg6
I3
sa(dp20
g4
(lp21
I1
aI7
aI17
aI10
aI3
asg6
I4
sa(dp22
g4
(lp23
I1
aI16
aI10
aI11
aI3
asg6
I4
sa(dp24
g4
(lp25
I1
aI7
aI2
aI12
aI10
aI3
asg6
I5
sasI4
(lp26
(dp27
g4
(lp28
I1
aI16
aI4
asg6
I2
sa(dp29
g4
(lp30
I1
aI7
aI2
aI4
asg6
I3
sa(dp31
g4
(lp32
I1
aI3
aI10
aI16
aI4
asg6
I4
sa(dp33
g4
(lp34
I1
aI16
aI10
aI12
aI2
aI4
asg6
I5
sa(dp35
g4
(lp36
I1
aI7
aI19
aI13
aI2
aI4
asg6
I5
sasI5
(lp37
(dp38
g4
(lp39
I1
aI16
aI5
asg6
I2
sa(dp40
g4
(lp41
I1
aI3
aI10
aI16
aI5
asg6
I4
sa(dp42
g4
(lp43
I1
aI16
aI9
aI8
aI5
asg6
I4
sa(dp44
g4
(lp45
I1
aI7
aI17
aI10
aI16
aI5
asg6
I5
sa(dp46
g4
(lp47
I1
aI3
aI11
aI10
aI16
aI5
asg6
I5
sasI6
(lp48
(dp49
g4
(lp50
I1
aI7
aI6
asg6
I2
sa(dp51
g4
(lp52
I1
aI7
aI19
aI6
asg6
I3
sa(dp53
g4
(lp54
I1
aI3
aI14
aI13
aI19
aI6
asg6
I5
sa(dp55
g4
(lp56
I1
aI7
aI17
aI13
aI19
aI6
asg6
I5
sa(dp57
g4
(lp58
I1
aI16
aI4
aI2
aI7
aI6
asg6
I5
sasI7
(lp59
(dp60
g4
(lp61
I1
aI7
asg6
I1
sa(dp62
g4
(lp63
I1
aI16
aI4
aI2
aI7
asg6
I4
sa(dp64
g4
(lp65
I1
aI3
aI10
aI17
aI7
asg6
I4
sa(dp66
g4
(lp67
I1
aI16
aI10
aI17
aI7
asg6
I4
sa(dp68
g4
(lp69
I1
aI3
aI11
aI10
aI17
aI7
asg6
I5
sasI8
(lp70
(dp71
g4
(lp72
I1
aI16
aI9
aI8
asg6
I3
sa(dp73
g4
(lp74
I1
aI16
aI5
aI8
asg6
I3
sa(dp75
g4
(lp76
I1
aI3
aI10
aI16
aI9
aI8
asg6
I5
sa(dp77
g4
(lp78
I1
aI3
aI10
aI16
aI5
aI8
asg6
I5
sa(dp79
g4
(lp80
I1
aI7
aI17
aI10
aI16
aI9
aI8
asg6
I6
sasI9
(lp81
(dp82
g4
(lp83
I1
aI16
aI9
asg6
I2
sa(dp84
g4
(lp85
I1
aI3
aI10
aI16
aI9
asg6
I4
sa(dp86
g4
(lp87
I1
aI16
aI5
aI8
aI9
asg6
I4
sa(dp88
g4
(lp89
I1
aI7
aI2
aI4
aI16
aI9
asg6
I5
sa(dp90
g4
(lp91
I1
aI3
aI11
aI10
aI16
aI9
asg6
I5
sasI10
(lp92
(dp93
g4
(lp94
I1
aI16
aI10
asg6
I2
sa(dp95
g4
(lp96
I1
aI3
aI10
asg6
I2
sa(dp97
g4
(lp98
I1
aI7
aI17
aI10
asg6
I3
sa(dp99
g4
(lp100
I1
aI3
aI11
aI10
asg6
I3
sa(dp101
g4
(lp102
I1
aI7
aI2
aI12
aI10
asg6
I4
sasI11
(lp103
(dp104
g4
(lp105
I1
aI3
aI11
asg6
I2
sa(dp106
g4
(lp107
I1
aI16
aI10
aI11
asg6
I3
sa(dp108
g4
(lp109
I1
aI3
aI10
aI11
asg6
I3
sa(dp110
g4
(lp111
I1
aI7
aI17
aI10
aI11
asg6
I4
sa(dp112
g4
(lp113
I1
aI16
aI10
aI3
aI11
asg6
I4
sasI12
(lp114
(dp115
g4
(lp116
I1
aI16
aI10
aI12
asg6
I3
sa(dp117
g4
(lp118
I1
aI3
aI10
aI12
asg6
I3
sa(dp119
g4
(lp120
I1
aI7
aI2
aI12
asg6
I3
sa(dp121
g4
(lp122
I1
aI16
aI4
aI2
aI12
asg6
I4
sa(dp123
g4
(lp124
I1
aI3
aI11
aI10
aI12
asg6
I4
sasI13
(lp125
(dp126
g4
(lp127
I1
aI3
aI14
aI13
asg6
I3
sa(dp128
g4
(lp129
I1
aI7
aI2
aI13
asg6
I3
sa(dp130
g4
(lp131
I1
aI7
aI17
aI13
asg6
I3
sa(dp132
g4
(lp133
I1
aI7
aI19
aI13
asg6
I3
sa(dp134
g4
(lp135
I1
aI3
aI10
aI17
aI13
asg6
I4
sasI14
(lp136
(dp137
g4
(lp138
I1
aI3
aI14
asg6
I2
sa(dp139
g4
(lp140
I1
aI16
aI10
aI3
aI14
asg6
I4
sa(dp141
g4
(lp142
I1
aI7
aI17
aI13
aI14
asg6
I4
sa(dp143
g4
(lp144
I1
aI7
aI2
aI13
aI14
asg6
I4
sa(dp145
g4
(lp146
I1
aI7
aI19
aI13
aI14
asg6
I4
sasI15
(lp147
(dp148
g4
(lp149
I1
aI16
aI9
aI15
asg6
I3
sa(dp150
g4
(lp151
I1
aI7
aI17
aI20
aI15
asg6
I4
sa(dp152
g4
(lp153
I1
aI16
aI10
aI17
aI20
aI15
asg6
I5
sa(dp154
g4
(lp155
I1
aI3
aI10
aI16
aI9
aI15
asg6
I5
sa(dp156
g4
(lp157
I1
aI16
aI5
aI8
aI9
aI15
asg6
I5
sasI16
(lp158
(dp159
g4
(lp160
I1
aI16
asg6
I1
sa(dp161
g4
(lp162
I1
aI3
aI10
aI16
asg6
I3
sa(dp163
g4
(lp164
I1
aI7
aI2
aI4
aI16
asg6
I4
sa(dp165
g4
(lp166
I1
aI3
aI11
aI10
aI16
asg6
I4
sa(dp167
g4
(lp168
I1
aI7
aI17
aI10
aI16
asg6
I4
sasI17
(lp169
(dp170
g4
(lp171
I1
aI7
aI17
asg6
I2
sa(dp172
g4
(lp173
I1
aI16
aI10
aI17
asg6
I3
sa(dp174
g4
(lp175
I1
aI3
aI10
aI17
asg6
I3
sa(dp176
g4
(lp177
I1
aI7
aI2
aI13
aI17
asg6
I4
sa(dp178
g4
(lp179
I1
aI3
aI11
aI10
aI17
asg6
I4
sasI18
(lp180
(dp181
g4
(lp182
I1
aI7
aI2
aI18
asg6
I3
sa(dp183
g4
(lp184
I1
aI3
aI21
aI18
asg6
I3
sa(dp185
g4
(lp186
I1
aI16
aI4
aI2
aI18
asg6
I4
sa(dp187
g4
(lp188
I1
aI7
aI19
aI13
aI2
aI18
asg6
I5
sa(dp189
g4
(lp190
I1
aI3
aI10
aI12
aI2
aI18
asg6
I5
sasI19
(lp191
(dp192
g4
(lp193
I1
aI7
aI19
asg6
I2
sa(dp194
g4
(lp195
I1
aI7
aI6
aI19
asg6
I3
sa(dp196
g4
(lp197
I1
aI3
aI14
aI13
aI19
asg6
I4
sa(dp198
g4
(lp199
I1
aI7
aI2
aI13
aI19
asg6
I4
sa(dp200
g4
(lp201
I1
aI7
aI17
aI13
aI19
asg6
I4
sasI20
(lp202
(dp203
g4
(lp204
I1
aI7
aI17
aI20
asg6
I3
sa(dp205
g4
(lp206
I1
aI16
aI10
aI17
aI20
asg6
I4
sa(dp207
g4
(lp208
I1
aI3
aI10
aI17
aI20
asg6
I4
sa(dp209
g4
(lp210
I1
aI16
aI9
aI15
aI20
asg6
I4
sa(dp211
g4
(lp212
I1
aI7
aI2
aI23
aI17
aI20
asg6
I5
sasI21
(lp213
(dp214
g4
(lp215
I1
aI3
aI21
asg6
I2
sa(dp216
g4
(lp217
I1
aI7
aI2
aI18
aI21
asg6
I4
sa(dp218
g4
(lp219
I1
aI16
aI10
aI3
aI21
asg6
I4
sa(dp220
g4
(lp221
I1
aI7
aI17
aI10
aI3
aI21
asg6
I5
sa(dp222
g4
(lp223
I1
aI16
aI4
aI2
aI18
aI21
asg6
I5
sasI22
(lp224
(dp225
g4
(lp226
I1
aI16
aI10
aI12
aI22
asg6
I4
sa(dp227
g4
(lp228
I1
aI7
aI17
aI20
aI22
asg6
I4
sa(dp229
g4
(lp230
I1
aI3
aI10
aI12
aI22
asg6
I4
sa(dp231
g4
(lp232
I1
aI7
aI2
aI12
aI22
asg6
I4
sa(dp233
g4
(lp234
I1
aI16
aI4
aI2
aI12
aI22
asg6
I5
sasI23
(lp235
(dp236
g4
(lp237
I1
aI7
aI17
aI23
asg6
I3
sa(dp238
g4
(lp239
I1
aI7
aI2
aI23
asg6
I3
sa(dp240
g4
(lp241
I1
aI16
aI10
aI17
aI23
asg6
I4
sa(dp242
g4
(lp243
I1
aI3
aI10
aI17
aI23
asg6
I4
sa(dp244
g4
(lp245
I1
aI16
aI4
aI2
aI23
asg6
I4
sassI2
(dp246
I1
(dp247
I0
(dp248
g4
(lp249
I2
aI7
aI1
asg6
I2
ssI1
(dp250
g4
(lp251
I2
aI4
aI16
aI1
asg6
I3
ssI2
(dp252
g4
(lp253
I2
aI13
aI19
aI7
aI1
asg6
I4
ssI3
(dp254
g4
(lp255
I2
aI12
aI10
aI3
aI1
asg6
I4
ssI4
(dp256
g4
(lp257
I2
aI12
aI10
aI16
aI1
asg6
I4
sssI3
(lp258
(dp259
g4
(lp260
I2
aI7
aI1
aI3
asg6
I3
sa(dp261
g4
(lp262
I2
aI12
aI10
aI3
asg6
I3
sa(dp263
g4
(lp264
I2
aI13
aI14
aI3
asg6
I3
sa(dp265
g4
(lp266
I2
aI18
aI21
aI3
asg6
I3
sa(dp267
g4
(lp268
I2
aI7
aI17
aI10
aI3
asg6
I4
sasI4
(lp269
(dp270
g4
(lp271
I2
aI4
asg6
I1
sa(dp272
g4
(lp273
I2
aI7
aI1
aI16
aI4
asg6
I4
sa(dp274
g4
(lp275
I2
aI12
aI10
aI16
aI4
asg6
I4
sa(dp276
g4
(lp277
I2
aI7
aI17
aI10
aI16
aI4
asg6
I5
sa(dp278
g4
(lp279
I2
aI13
aI17
aI10
aI16
aI4
asg6
I5
sasI5
(lp280
(dp281
g4
(lp282
I2
aI4
aI16
aI5
asg6
I3
sa(dp283
g4
(lp284
I2
aI7
aI1
aI16
aI5
asg6
I4
sa(dp285
g4
(lp286
I2
aI12
aI10
aI16
aI5
asg6
I4
sa(dp287
g4
(lp288
I2
aI4
aI16
aI9
aI8
aI5
asg6
I5
sa(dp289
g4
(lp290
I2
aI7
aI17
aI10
aI16
aI5
asg6
I5
sasI6
(lp291
(dp292
g4
(lp293
I2
aI7
aI6
asg6
I2
sa(dp294
g4
(lp295
I2
aI13
aI19
aI6
asg6
I3
sa(dp296
g4
(lp297
I2
aI7
aI19
aI6
asg6
I3
sa(dp298
g4
(lp299
I2
aI23
aI17
aI7
aI6
asg6
I4
sa(dp300
g4
(lp301
I2
aI13
aI17
aI7
aI6
asg6
I4
sasI7
(lp302
(dp303
g4
(lp304
I2
aI7
asg6
I1
sa(dp305
g4
(lp306
I2
aI13
aI19
aI7
asg6
I3
sa(dp307
g4
(lp308
I2
aI23
aI17
aI7
asg6
I3
sa(dp309
g4
(lp310
I2
aI13
aI17
aI7
asg6
I3
sa(dp311
g4
(lp312
I2
aI13
aI19
aI6
aI7
asg6
I4
sasI8
(lp313
(dp314
g4
(lp315
I2
aI4
aI16
aI9
aI8
asg6
I4
sa(dp316
g4
(lp317
I2
aI4
aI16
aI5
aI8
asg6
I4
sa(dp318
g4
(lp319
I2
aI7
aI1
aI16
aI9
aI8
asg6
I5
sa(dp320
g4
(lp321
I2
aI12
aI10
aI16
aI9
aI8
asg6
I5
sa(dp322
g4
(lp323
I2
aI7
aI1
aI16
aI5
aI8
asg6
I5
sasI9
(lp324
(dp325
g4
(lp326
I2
aI4
aI16
aI9
asg6
I3
sa(dp327
g4
(lp328
I2
aI7
aI1
aI16
aI9
asg6
I4
sa(dp329
g4
(lp330
I2
aI12
aI10
aI16
aI9
asg6
I4
sa(dp331
g4
(lp332
I2
aI4
aI16
aI5
aI8
aI9
asg6
I5
sa(dp333
g4
(lp334
I2
aI7
aI17
aI10
aI16
aI9
asg6
I5
sasI10
(lp335
(dp336
g4
(lp337
I2
aI12
aI10
asg6
I2
sa(dp338
g4
(lp339
I2
aI4
aI16
aI10
asg6
I3
sa(dp340
g4
(lp341
I2
aI7
aI17
aI10
asg6
I3
sa(dp342
g4
(lp343
I2
aI13
aI17
aI10
asg6
I3
sa(dp344
g4
(lp345
I2
aI23
aI17
aI10
asg6
I3
sasI11
(lp346
(dp347
g4
(lp348
I2
aI12
aI10
aI11
asg6
I3
sa(dp349
g4
(lp350
I2
aI4
aI16
aI10
aI11
asg6
I4
sa(dp351
g4
(lp352
I2
aI12
aI10
aI3
aI11
asg6
I4
sa(dp353
g4
(lp354
I2
aI7
aI1
aI3
aI11
asg6
I4
sa(dp355
g4
(lp356
I2
aI13
aI17
aI10
aI11
asg6
I4
sasI12
(lp357
(dp358
g4
(lp359
I2
aI12
asg6
I1
sa(dp360
g4
(lp361
I2
aI4
aI16
aI10
aI12
asg6
I4
sa(dp362
g4
(lp363
I2
aI7
aI17
aI10
aI12
asg6
I4
sa(dp364
g4
(lp365
I2
aI13
aI17
aI10
aI12
asg6
I4
sa(dp366
g4
(lp367
I2
aI23
aI17
aI10
aI12
asg6
I4
sasI13
(lp368
(dp369
g4
(lp370
I2
aI13
asg6
I1
sa(dp371
g4
(lp372
I2
aI23
aI17
aI13
asg6
I3
sa(dp373
g4
(lp374
I2
aI7
aI17
aI13
asg6
I3
sa(dp375
g4
(lp376
I2
aI7
aI19
aI13
asg6
I3
sa(dp377
g4
(lp378
I2
aI12
aI10
aI17
aI13
asg6
I4
sasI14
(lp379
(dp380
g4
(lp381
I2
aI13
aI14
asg6
I2
sa(dp382
g4
(lp383
I2
aI7
aI1
aI3
aI14
asg6
I4
sa(dp384
g4
(lp385
I2
aI12
aI10
aI3
aI14
asg6
I4
sa(dp386
g4
(lp387
I2
aI7
aI17
aI13
aI14
asg6
I4
sa(dp388
g4
(lp389
I2
aI18
aI21
aI3
aI14
asg6
I4
sasI15
(lp390
(dp391
g4
(lp392
I2
aI4
aI16
aI9
aI15
asg6
I4
sa(dp393
g4
(lp394
I2
aI23
aI17
aI20
aI15
asg6
I4
sa(dp395
g4
(lp396
I2
aI7
aI17
aI20
aI15
asg6
I4
sa(dp397
g4
(lp398
I2
aI12
aI22
aI20
aI15
asg6
I4
sa(dp399
g4
(lp400
I2
aI13
aI17
aI20
aI15
asg6
I4
sasI16
(lp401
(dp402
g4
(lp403
I2
aI4
aI16
asg6
I2
sa(dp404
g4
(lp405
I2
aI7
aI1
aI16
asg6
I3
sa(dp406
g4
(lp407
I2
aI12
aI10
aI16
asg6
I3
sa(dp408
g4
(lp409
I2
aI7
aI17
aI10
aI16
asg6
I4
sa(dp410
g4
(lp411
I2
aI13
aI17
aI10
aI16
asg6
I4
sasI17
(lp412
(dp413
g4
(lp414
I2
aI23
aI17
asg6
I2
sa(dp415
g4
(lp416
I2
aI13
aI17
asg6
I2
sa(dp417
g4
(lp418
I2
aI7
aI17
asg6
I2
sa(dp419
g4
(lp420
I2
aI12
aI10
aI17
asg6
I3
sa(dp421
g4
(lp422
I2
aI13
aI19
aI7
aI17
asg6
I4
sasI18
(lp423
(dp424
g4
(lp425
I2
aI18
asg6
I1
sa(dp426
g4
(lp427
I2
aI7
aI1
aI3
aI21
aI18
asg6
I5
sa(dp428
g4
(lp429
I2
aI12
aI10
aI3
aI21
aI18
asg6
I5
sa(dp430
g4
(lp431
I2
aI13
aI14
aI3
aI21
aI18
asg6
I5
sa(dp432
g4
(lp433
I2
aI7
aI17
aI10
aI3
aI21
aI18
asg6
I6
sasI19
(lp434
(dp435
g4
(lp436
I2
aI13
aI19
asg6
I2
sa(dp437
g4
(lp438
I2
aI7
aI19
asg6
I2
sa(dp439
g4
(lp440
I2
aI7
aI6
aI19
asg6
I3
sa(dp441
g4
(lp442
I2
aI13
aI17
aI7
aI19
asg6
I4
sa(dp443
g4
(lp444
I2
aI23
aI17
aI13
aI19
asg6
I4
sasI20
(lp445
(dp446
g4
(lp447
I2
aI23
aI17
aI20
asg6
I3
sa(dp448
g4
(lp449
I2
aI13
aI17
aI20
asg6
I3
sa(dp450
g4
(lp451
I2
aI7
aI17
aI20
asg6
I3
sa(dp452
g4
(lp453
I2
aI12
aI22
aI20
asg6
I3
sa(dp454
g4
(lp455
I2
aI12
aI10
aI17
aI20
asg6
I4
sasI21
(lp456
(dp457
g4
(lp458
I2
aI18
aI21
asg6
I2
sa(dp459
g4
(lp460
I2
aI7
aI1
aI3
aI21
asg6
I4
sa(dp461
g4
(lp462
I2
aI12
aI10
aI3
aI21
asg6
I4
sa(dp463
g4
(lp464
I2
aI13
aI14
aI3
aI21
asg6
I4
sa(dp465
g4
(lp466
I2
aI7
aI17
aI10
aI3
aI21
asg6
I5
sasI22
(lp467
(dp468
g4
(lp469
I2
aI12
aI22
asg6
I2
sa(dp470
g4
(lp471
I2
aI23
aI17
aI20
aI22
asg6
I4
sa(dp472
g4
(lp473
I2
aI13
aI17
aI20
aI22
asg6
I4
sa(dp474
g4
(lp475
I2
aI7
aI17
aI20
aI22
asg6
I4
sa(dp476
g4
(lp477
I2
aI12
aI10
aI17
aI20
aI22
asg6
I5
sasI23
(lp478
(dp479
g4
(lp480
I2
aI23
asg6
I1
sa(dp481
g4
(lp482
I2
aI13
aI17
aI23
asg6
I3
sa(dp483
g4
(lp484
I2
aI7
aI17
aI23
asg6
I3
sa(dp485
g4
(lp486
I2
aI12
aI10
aI17
aI23
asg6
I4
sa(dp487
g4
(lp488
I2
aI13
aI19
aI7
aI17
aI23
asg6
I5
sassI3
(dp489
I1
(dp490
I0
(dp491
g4
(lp492
I3
aI1
asg6
I1
ssI1
(dp493
g4
(lp494
I3
aI10
aI16
aI1
asg6
I3
ssI2
(dp495
g4
(lp496
I3
aI10
aI17
aI7
aI1
asg6
I4
ssI3
(dp497
g4
(lp498
I3
aI11
aI10
aI16
aI1
asg6
I4
ssI4
(dp499
g4
(lp500
I3
aI10
aI12
aI2
aI7
aI1
asg6
I5
sssI2
(dp501
I0
(dp502
g4
(lp503
I3
aI1
aI7
aI2
asg6
I3
ssI1
(dp504
g4
(lp505
I3
aI10
aI12
aI2
asg6
I3
ssI2
(dp506
g4
(lp507
I3
aI14
aI13
aI2
asg6
I3
ssI3
(dp508
g4
(lp509
I3
aI21
aI18
aI2
asg6
I3
ssI4
(dp510
g4
(lp511
I3
aI10
aI17
aI7
aI2
asg6
I4
sssI4
(lp512
(dp513
g4
(lp514
I3
aI1
aI16
aI4
asg6
I3
sa(dp515
g4
(lp516
I3
aI10
aI16
aI4
asg6
I3
sa(dp517
g4
(lp518
I3
aI1
aI7
aI2
aI4
asg6
I4
sa(dp519
g4
(lp520
I3
aI11
aI10
aI16
aI4
asg6
I4
sa(dp521
g4
(lp522
I3
aI10
aI12
aI2
aI4
asg6
I4
sasI5
(lp523
(dp524
g4
(lp525
I3
aI1
aI16
aI5
asg6
I3
sa(dp526
g4
(lp527
I3
aI10
aI16
aI5
asg6
I3
sa(dp528
g4
(lp529
I3
aI11
aI10
aI16
aI5
asg6
I4
sa(dp530
g4
(lp531
I3
aI1
aI16
aI9
aI8
aI5
asg6
I5
sa(dp532
g4
(lp533
I3
aI10
aI16
aI9
aI8
aI5
asg6
I5
sasI6
(lp534
(dp535
g4
(lp536
I3
aI1
aI7
aI6
asg6
I3
sa(dp537
g4
(lp538
I3
aI10
aI17
aI7
aI6
asg6
I4
sa(dp539
g4
(lp540
I3
aI1
aI7
aI19
aI6
asg6
I4
sa(dp541
g4
(lp542
I3
aI14
aI13
aI19
aI6
asg6
I4
sa(dp543
g4
(lp544
I3
aI10
aI16
aI1
aI7
aI6
asg6
I5
sasI7
(lp545
(dp546
g4
(lp547
I3
aI1
aI7
asg6
I2
sa(dp548
g4
(lp549
I3
aI10
aI17
aI7
asg6
I3
sa(dp550
g4
(lp551
I3
aI11
aI10
aI17
aI7
asg6
I4
sa(dp552
g4
(lp553
I3
aI10
aI16
aI1
aI7
asg6
I4
sa(dp554
g4
(lp555
I3
aI21
aI18
aI2
aI7
asg6
I4
sasI8
(lp556
(dp557
g4
(lp558
I3
aI1
aI16
aI9
aI8
asg6
I4
sa(dp559
g4
(lp560
I3
aI10
aI16
aI9
aI8
asg6
I4
sa(dp561
g4
(lp562
I3
aI1
aI16
aI5
aI8
asg6
I4
sa(dp563
g4
(lp564
I3
aI10
aI16
aI5
aI8
asg6
I4
sa(dp565
g4
(lp566
I3
aI11
aI10
aI16
aI9
aI8
asg6
I5
sasI9
(lp567
(dp568
g4
(lp569
I3
aI1
aI16
aI9
asg6
I3
sa(dp570
g4
(lp571
I3
aI10
aI16
aI9
asg6
I3
sa(dp572
g4
(lp573
I3
aI11
aI10
aI16
aI9
asg6
I4
sa(dp574
g4
(lp575
I3
aI1
aI16
aI5
aI8
aI9
asg6
I5
sa(dp576
g4
(lp577
I3
aI10
aI17
aI20
aI15
aI9
asg6
I5
sasI10
(lp578
(dp579
g4
(lp580
I3
aI10
asg6
I1
sa(dp581
g4
(lp582
I3
aI11
aI10
asg6
I2
sa(dp583
g4
(lp584
I3
aI1
aI16
aI10
asg6
I3
sa(dp585
g4
(lp586
I3
aI14
aI13
aI17
aI10
asg6
I4
sa(dp587
g4
(lp588
I3
aI1
aI7
aI17
aI10
asg6
I4
sasI11
(lp589
(dp590
g4
(lp591
I3
aI11
asg6
I1
sa(dp592
g4
(lp593
I3
aI10
aI11
asg6
I2
sa(dp594
g4
(lp595
I3
aI1
aI16
aI10
aI11
asg6
I4
sa(dp596
g4
(lp597
I3
aI14
aI13
aI17
aI10
aI11
asg6
I5
sa(dp598
g4
(lp599
I3
aI1
aI7
aI17
aI10
aI11
asg6
I5
sasI12
(lp600
(dp601
g4
(lp602
I3
aI10
aI12
asg6
I2
sa(dp603
g4
(lp604
I3
aI11
aI10
aI12
asg6
I3
sa(dp605
g4
(lp606
I3
aI1
aI7
aI2
aI12
asg6
I4
sa(dp607
g4
(lp608
I3
aI21
aI18
aI2
aI12
asg6
I4
sa(dp609
g4
(lp610
I3
aI1
aI16
aI10
aI12
asg6
I4
sasI13
(lp611
(dp612
g4
(lp613
I3
aI14
aI13
asg6
I2
sa(dp614
g4
(lp615
I3
aI10
aI17
aI13
asg6
I3
sa(dp616
g4
(lp617
I3
aI1
aI7
aI2
aI13
asg6
I4
sa(dp618
g4
(lp619
I3
aI10
aI12
aI2
aI13
asg6
I4
sa(dp620
g4
(lp621
I3
aI11
aI10
aI17
aI13
asg6
I4
sasI14
(lp622
(dp623
g4
(lp624
I3
aI14
asg6
I1
sa(dp625
g4
(lp626
I3
aI10
aI17
aI13
aI14
asg6
I4
sa(dp627
g4
(lp628
I3
aI11
aI10
aI17
aI13
aI14
asg6
I5
sa(dp629
g4
(lp630
I3
aI10
aI12
aI2
aI13
aI14
asg6
I5
sa(dp631
g4
(lp632
I3
aI1
aI7
aI2
aI13
aI14
asg6
I5
sasI15
(lp633
(dp634
g4
(lp635
I3
aI1
aI16
aI9
aI15
asg6
I4
sa(dp636
g4
(lp637
I3
aI10
aI16
aI9
aI15
asg6
I4
sa(dp638
g4
(lp639
I3
aI10
aI17
aI20
aI15
asg6
I4
sa(dp640
g4
(lp641
I3
aI1
aI7
aI17
aI20
aI15
asg6
I5
sa(dp642
g4
(lp643
I3
aI11
aI10
aI16
aI9
aI15
asg6
I5
sasI16
(lp644
(dp645
g4
(lp646
I3
aI1
aI16
asg6
I2
sa(dp647
g4
(lp648
I3
aI10
aI16
asg6
I2
sa(dp649
g4
(lp650
I3
aI11
aI10
aI16
asg6
I3
sa(dp651
g4
(lp652
I3
aI1
aI7
aI2
aI4
aI16
asg6
I5
sa(dp653
g4
(lp654
I3
aI10
aI17
aI7
aI1
aI16
asg6
I5
sasI17
(lp655
(dp656
g4
(lp657
I3
aI10
aI17
asg6
I2
sa(dp658
g4
(lp659
I3
aI1
aI7
aI17
asg6
I3
sa(dp660
g4
(lp661
I3
aI11
aI10
aI17
asg6
I3
sa(dp662
g4
(lp663
I3
aI14
aI13
aI17
asg6
I3
sa(dp664
g4
(lp665
I3
aI1
aI16
aI10
aI17
asg6
I4
sasI18
(lp666
(dp667
g4
(lp668
I3
aI21
aI18
asg6
I2
sa(dp669
g4
(lp670
I3
aI1
aI7
aI2
aI18
asg6
I4
sa(dp671
g4
(lp672
I3
aI10
aI12
aI2
aI18
asg6
I4
sa(dp673
g4
(lp674
I3
aI14
aI13
aI2
aI18
asg6
I4
sa(dp675
g4
(lp676
I3
aI1
aI16
aI4
aI2
aI18
asg6
I5
sasI19
(lp677
(dp678
g4
(lp679
I3
aI14
aI13
aI19
asg6
I3
sa(dp680
g4
(lp681
I3
aI1
aI7
aI19
asg6
I3
sa(dp682
g4
(lp683
I3
aI10
aI17
aI13
aI19
asg6
I4
sa(dp684
g4
(lp685
I3
aI1
aI7
aI6
aI19
asg6
I4
sa(dp686
g4
(lp687
I3
aI10
aI17
aI7
aI19
asg6
I4
sasI20
(lp688
(dp689
g4
(lp690
I3
aI10
aI17
aI20
asg6
I3
sa(dp691
g4
(lp692
I3
aI1
aI7
aI17
aI20
asg6
I4
sa(dp693
g4
(lp694
I3
aI10
aI12
aI22
aI20
asg6
I4
sa(dp695
g4
(lp696
I3
aI11
aI10
aI17
aI20
asg6
I4
sa(dp697
g4
(lp698
I3
aI14
aI13
aI17
aI20
asg6
I4
sasI21
(lp699
(dp700
g4
(lp701
I3
aI21
asg6
I1
sa(dp702
g4
(lp703
I3
aI1
aI7
aI2
aI18
aI21
asg6
I5
sa(dp704
g4
(lp705
I3
aI10
aI12
aI2
aI18
aI21
asg6
I5
sa(dp706
g4
(lp707
I3
aI14
aI13
aI2
aI18
aI21
asg6
I5
sa(dp708
g4
(lp709
I3
aI1
aI16
aI4
aI2
aI18
aI21
asg6
I6
sasI22
(lp710
(dp711
g4
(lp712
I3
aI10
aI12
aI22
asg6
I3
sa(dp713
g4
(lp714
I3
aI11
aI10
aI12
aI22
asg6
I4
sa(dp715
g4
(lp716
I3
aI10
aI17
aI20
aI22
asg6
I4
sa(dp717
g4
(lp718
I3
aI1
aI16
aI10
aI12
aI22
asg6
I5
sa(dp719
g4
(lp720
I3
aI11
aI10
aI17
aI20
aI22
asg6
I5
sasI23
(lp721
(dp722
g4
(lp723
I3
aI10
aI17
aI23
asg6
I3
sa(dp724
g4
(lp725
I3
aI1
aI7
aI17
aI23
asg6
I4
sa(dp726
g4
(lp727
I3
aI10
aI12
aI2
aI23
asg6
I4
sa(dp728
g4
(lp729
I3
aI11
aI10
aI17
aI23
asg6
I4
sa(dp730
g4
(lp731
I3
aI1
aI7
aI2
aI23
asg6
I4
sassI4
(dp732
I1
(dp733
I0
(dp734
g4
(lp735
I4
aI16
aI1
asg6
I2
ssI1
(dp736
g4
(lp737
I4
aI2
aI7
aI1
asg6
I3
ssI2
(dp738
g4
(lp739
I4
aI16
aI10
aI3
aI1
asg6
I4
ssI3
(dp740
g4
(lp741
I4
aI2
aI12
aI10
aI16
aI1
asg6
I5
ssI4
(dp742
g4
(lp743
I4
aI2
aI13
aI19
aI7
aI1
asg6
I5
sssI2
(dp744
I0
(dp745
g4
(lp746
I4
aI2
asg6
I1
ssI1
(dp747
g4
(lp748
I4
aI16
aI1
aI7
aI2
asg6
I4
ssI2
(dp749
g4
(lp750
I4
aI16
aI10
aI12
aI2
asg6
I4
ssI3
(dp751
g4
(lp752
I4
aI16
aI10
aI17
aI7
aI2
asg6
I5
ssI4
(dp753
g4
(lp754
I4
aI16
aI10
aI17
aI13
aI2
asg6
I5
sssI3
(dp755
I0
(dp756
g4
(lp757
I4
aI16
aI1
aI3
asg6
I3
ssI1
(dp758
g4
(lp759
I4
aI16
aI10
aI3
asg6
I3
ssI2
(dp760
g4
(lp761
I4
aI2
aI7
aI1
aI3
asg6
I4
ssI3
(dp762
g4
(lp763
I4
aI16
aI10
aI11
aI3
asg6
I4
ssI4
(dp764
g4
(lp765
I4
aI2
aI12
aI10
aI3
asg6
I4
sssI5
(lp766
(dp767
g4
(lp768
I4
aI16
aI5
asg6
I2
sa(dp769
g4
(lp770
I4
aI16
aI9
aI8
aI5
asg6
I4
sa(dp771
g4
(lp772
I4
aI2
aI7
aI1
aI16
aI5
asg6
I5
sa(dp773
g4
(lp774
I4
aI2
aI12
aI10
aI16
aI5
asg6
I5
sa(dp775
g4
(lp776
I4
aI2
aI7
aI17
aI10
aI16
aI5
asg6
I6
sasI6
(lp777
(dp778
g4
(lp779
I4
aI2
aI7
aI6
asg6
I3
sa(dp780
g4
(lp781
I4
aI16
aI1
aI7
aI6
asg6
I4
sa(dp782
g4
(lp783
I4
aI2
aI13
aI19
aI6
asg6
I4
sa(dp784
g4
(lp785
I4
aI2
aI7
aI19
aI6
asg6
I4
sa(dp786
g4
(lp787
I4
aI16
aI10
aI17
aI7
aI6
asg6
I5
sasI7
(lp788
(dp789
g4
(lp790
I4
aI2
aI7
asg6
I2
sa(dp791
g4
(lp792
I4
aI16
aI1
aI7
asg6
I3
sa(dp793
g4
(lp794
I4
aI2
aI13
aI17
aI7
asg6
I4
sa(dp795
g4
(lp796
I4
aI16
aI10
aI17
aI7
asg6
I4
sa(dp797
g4
(lp798
I4
aI2
aI23
aI17
aI7
asg6
I4
sasI8
(lp799
(dp800
g4
(lp801
I4
aI16
aI5
aI8
asg6
I3
sa(dp802
g4
(lp803
I4
aI16
aI9
aI8
asg6
I3
sa(dp804
g4
(lp805
I4
aI2
aI7
aI1
aI16
aI9
aI8
asg6
I6
sa(dp806
g4
(lp807
I4
aI2
aI12
aI10
aI16
aI9
aI8
asg6
I6
sa(dp808
g4
(lp809
I4
aI2
aI7
aI1
aI16
aI5
aI8
asg6
I6
sasI9
(lp810
(dp811
g4
(lp812
I4
aI16
aI9
asg6
I2
sa(dp813
g4
(lp814
I4
aI16
aI5
aI8
aI9
asg6
I4
sa(dp815
g4
(lp816
I4
aI2
aI7
aI1
aI16
aI9
asg6
I5
sa(dp817
g4
(lp818
I4
aI2
aI12
aI10
aI16
aI9
asg6
I5
sa(dp819
g4
(lp820
I4
aI16
aI10
aI17
aI20
aI15
aI9
asg6
I6
sasI10
(lp821
(dp822
g4
(lp823
I4
aI16
aI10
asg6
I2
sa(dp824
g4
(lp825
I4
aI2
aI12
aI10
asg6
I3
sa(dp826
g4
(lp827
I4
aI16
aI1
aI3
aI10
asg6
I4
sa(dp828
g4
(lp829
I4
aI2
aI7
aI17
aI10
asg6
I4
sa(dp830
g4
(lp831
I4
aI2
aI13
aI17
aI10
asg6
I4
sasI11
(lp832
(dp833
g4
(lp834
I4
aI16
aI10
aI11
asg6
I3
sa(dp835
g4
(lp836
I4
aI2
aI12
aI10
aI11
asg6
I4
sa(dp837
g4
(lp838
I4
aI16
aI1
aI3
aI11
asg6
I4
sa(dp839
g4
(lp840
I4
aI16
aI10
aI3
aI11
asg6
I4
sa(dp841
g4
(lp842
I4
aI2
aI7
aI1
aI3
aI11
asg6
I5
sasI12
(lp843
(dp844
g4
(lp845
I4
aI2
aI12
asg6
I2
sa(dp846
g4
(lp847
I4
aI16
aI10
aI12
asg6
I3
sa(dp848
g4
(lp849
I4
aI2
aI7
aI17
aI10
aI12
asg6
I5
sa(dp850
g4
(lp851
I4
aI16
aI1
aI7
aI2
aI12
asg6
I5
sa(dp852
g4
(lp853
I4
aI2
aI13
aI17
aI10
aI12
asg6
I5
sasI13
(lp854
(dp855
g4
(lp856
I4
aI2
aI13
asg6
I2
sa(dp857
g4
(lp858
I4
aI16
aI10
aI17
aI13
asg6
I4
sa(dp859
g4
(lp860
I4
aI2
aI23
aI17
aI13
asg6
I4
sa(dp861
g4
(lp862
I4
aI2
aI7
aI19
aI13
asg6
I4
sa(dp863
g4
(lp864
I4
aI2
aI7
aI17
aI13
asg6
I4
sasI14
(lp865
(dp866
g4
(lp867
I4
aI2
aI13
aI14
asg6
I3
sa(dp868
g4
(lp869
I4
aI16
aI1
aI3
aI14
asg6
I4
sa(dp870
g4
(lp871
I4
aI16
aI10
aI3
aI14
asg6
I4
sa(dp872
g4
(lp873
I4
aI2
aI7
aI1
aI3
aI14
asg6
I5
sa(dp874
g4
(lp875
I4
aI16
aI10
aI11
aI3
aI14
asg6
I5
sasI15
(lp876
(dp877
g4
(lp878
I4
aI16
aI9
aI15
asg6
I3
sa(dp879
g4
(lp880
I4
aI2
aI23
aI17
aI20
aI15
asg6
I5
sa(dp881
g4
(lp882
I4
aI16
aI10
aI17
aI20
aI15
asg6
I5
sa(dp883
g4
(lp884
I4
aI2
aI7
aI17
aI20
aI15
asg6
I5
sa(dp885
g4
(lp886
I4
aI16
aI5
aI8
aI9
aI15
asg6
I5
sasI16
(lp887
(dp888
g4
(lp889
I4
aI16
asg6
I1
sa(dp890
g4
(lp891
I4
aI2
aI7
aI1
aI16
asg6
I4
sa(dp892
g4
(lp893
I4
aI2
aI12
aI10
aI16
asg6
I4
sa(dp894
g4
(lp895
I4
aI2
aI7
aI17
aI10
aI16
asg6
I5
sa(dp896
g4
(lp897
I4
aI2
aI13
aI17
aI10
aI16
asg6
I5
sasI17
(lp898
(dp899
g4
(lp900
I4
aI16
aI10
aI17
asg6
I3
sa(dp901
g4
(lp902
I4
aI2
aI23
aI17
asg6
I3
sa(dp903
g4
(lp904
I4
aI2
aI13
aI17
asg6
I3
sa(dp905
g4
(lp906
I4
aI2
aI7
aI17
asg6
I3
sa(dp907
g4
(lp908
I4
aI16
aI1
aI7
aI17
asg6
I4
sasI18
(lp909
(dp910
g4
(lp911
I4
aI2
aI18
asg6
I2
sa(dp912
g4
(lp913
I4
aI16
aI1
aI3
aI21
aI18
asg6
I5
sa(dp914
g4
(lp915
I4
aI16
aI10
aI3
aI21
aI18
asg6
I5
sa(dp916
g4
(lp917
I4
aI16
aI1
aI7
aI2
aI18
asg6
I5
sa(dp918
g4
(lp919
I4
aI16
aI10
aI12
aI2
aI18
asg6
I5
sasI19
(lp920
(dp921
g4
(lp922
I4
aI2
aI7
aI19
asg6
I3
sa(dp923
g4
(lp924
I4
aI2
aI13
aI19
asg6
I3
sa(dp925
g4
(lp926
I4
aI16
aI1
aI7
aI19
asg6
I4
sa(dp927
g4
(lp928
I4
aI2
aI7
aI6
aI19
asg6
I4
sa(dp929
g4
(lp930
I4
aI2
aI23
aI17
aI13
aI19
asg6
I5
sasI20
(lp931
(dp932
g4
(lp933
I4
aI16
aI10
aI17
aI20
asg6
I4
sa(dp934
g4
(lp935
I4
aI2
aI23
aI17
aI20
asg6
I4
sa(dp936
g4
(lp937
I4
aI16
aI9
aI15
aI20
asg6
I4
sa(dp938
g4
(lp939
I4
aI2
aI13
aI17
aI20
asg6
I4
sa(dp940
g4
(lp941
I4
aI2
aI7
aI17
aI20
asg6
I4
sasI21
(lp942
(dp943
g4
(lp944
I4
aI2
aI18
aI21
asg6
I3
sa(dp945
g4
(lp946
I4
aI16
aI1
aI3
aI21
asg6
I4
sa(dp947
g4
(lp948
I4
aI16
aI10
aI3
aI21
asg6
I4
sa(dp949
g4
(lp950
I4
aI2
aI7
aI1
aI3
aI21
asg6
I5
sa(dp951
g4
(lp952
I4
aI16
aI10
aI11
aI3
aI21
asg6
I5
sasI22
(lp953
(dp954
g4
(lp955
I4
aI2
aI12
aI22
asg6
I3
sa(dp956
g4
(lp957
I4
aI16
aI10
aI12
aI22
asg6
I4
sa(dp958
g4
(lp959
I4
aI2
aI23
aI17
aI20
aI22
asg6
I5
sa(dp960
g4
(lp961
I4
aI16
aI9
aI15
aI20
aI22
asg6
I5
sa(dp962
g4
(lp963
I4
aI16
aI10
aI17
aI20
aI22
asg6
I5
sasI23
(lp964
(dp965
g4
(lp966
I4
aI2
aI23
asg6
I2
sa(dp967
g4
(lp968
I4
aI16
aI10
aI17
aI23
asg6
I4
sa(dp969
g4
(lp970
I4
aI2
aI13
aI17
aI23
asg6
I4
sa(dp971
g4
(lp972
I4
aI2
aI7
aI17
aI23
asg6
I4
sa(dp973
g4
(lp974
I4
aI16
aI1
aI7
aI17
aI23
asg6
I5
sassI5
(dp975
I1
(dp976
I0
(dp977
g4
(lp978
I5
aI16
aI1
asg6
I2
ssI1
(dp979
g4
(lp980
I5
aI16
aI10
aI3
aI1
asg6
I4
ssI2
(dp981
g4
(lp982
I5
aI8
aI9
aI16
aI1
asg6
I4
ssI3
(dp983
g4
(lp984
I5
aI16
aI10
aI17
aI7
aI1
asg6
I5
ssI4
(dp985
g4
(lp986
I5
aI16
aI10
aI11
aI3
aI1
asg6
I5
sssI2
(dp987
I0
(dp988
g4
(lp989
I5
aI16
aI4
aI2
asg6
I3
ssI1
(dp990
g4
(lp991
I5
aI16
aI1
aI7
aI2
asg6
I4
ssI2
(dp992
g4
(lp993
I5
aI16
aI10
aI12
aI2
asg6
I4
ssI3
(dp994
g4
(lp995
I5
aI8
aI9
aI16
aI4
aI2
asg6
I5
ssI4
(dp996
g4
(lp997
I5
aI16
aI10
aI17
aI7
aI2
asg6
I5
sssI3
(dp998
I0
(dp999
g4
(lp1000
I5
aI16
aI1
aI3
asg6
I3
ssI1
(dp1001
g4
(lp1002
I5
aI16
aI10
aI3
asg6
I3
ssI2
(dp1003
g4
(lp1004
I5
aI16
aI10
aI11
aI3
asg6
I4
ssI3
(dp1005
g4
(lp1006
I5
aI8
aI9
aI16
aI1
aI3
asg6
I5
ssI4
(dp1007
g4
(lp1008
I5
aI8
aI9
aI16
aI10
aI3
asg6
I5
sssI4
(dp1009
I0
(dp1010
g4
(lp1011
I5
aI16
aI4
asg6
I2
ssI1
(dp1012
g4
(lp1013
I5
aI8
aI9
aI16
aI4
asg6
I4
ssI2
(dp1014
g4
(lp1015
I5
aI16
aI1
aI7
aI2
aI4
asg6
I5
ssI3
(dp1016
g4
(lp1017
I5
aI16
aI10
aI12
aI2
aI4
asg6
I5
ssI4
(dp1018
g4
(lp1019
I5
aI16
aI10
aI17
aI7
aI2
aI4
asg6
I6
sssI6
(lp1020
(dp1021
g4
(lp1022
I5
aI16
aI1
aI7
aI6
asg6
I4
sa(dp1023
g4
(lp1024
I5
aI16
aI10
aI17
aI7
aI6
asg6
I5
sa(dp1025
g4
(lp1026
I5
aI16
aI1
aI7
aI19
aI6
asg6
I5
sa(dp1027
g4
(lp1028
I5
aI16
aI4
aI2
aI7
aI6
asg6
I5
sa(dp1029
g4
(lp1030
I5
aI8
aI9
aI16
aI1
aI7
aI6
asg6
I6
sasI7
(lp1031
(dp1032
g4
(lp1033
I5
aI16
aI1
aI7
asg6
I3
sa(dp1034
g4
(lp1035
I5
aI16
aI10
aI17
aI7
asg6
I4
sa(dp1036
g4
(lp1037
I5
aI16
aI4
aI2
aI7
asg6
I4
sa(dp1038
g4
(lp1039
I5
aI8
aI9
aI16
aI1
aI7
asg6
I5
sa(dp1040
g4
(lp1041
I5
aI16
aI10
aI3
aI1
aI7
asg6
I5
sasI8
(lp1042
(dp1043
g4
(lp1044
I5
aI8
asg6
I1
sa(dp1045
g4
(lp1046
I5
aI16
aI9
aI8
asg6
I3
sa(dp1047
g4
(lp1048
I5
aI16
aI10
aI17
aI20
aI15
aI9
aI8
asg6
I7
sa(dp1049
g4
(lp1050
I5
aI16
aI1
aI7
aI17
aI20
aI15
aI9
aI8
asg6
I8
sa(dp1051
g4
(lp1052
I5
aI16
aI10
aI12
aI22
aI20
aI15
aI9
aI8
asg6
I8
sasI9
(lp1053
(dp1054
g4
(lp1055
I5
aI8
aI9
asg6
I2
sa(dp1056
g4
(lp1057
I5
aI16
aI9
asg6
I2
sa(dp1058
g4
(lp1059
I5
aI16
aI10
aI17
aI20
aI15
aI9
asg6
I6
sa(dp1060
g4
(lp1061
I5
aI16
aI1
aI7
aI17
aI20
aI15
aI9
asg6
I7
sa(dp1062
g4
(lp1063
I5
aI16
aI10
aI12
aI22
aI20
aI15
aI9
asg6
I7
sasI10
(lp1064
(dp1065
g4
(lp1066
I5
aI16
aI10
asg6
I2
sa(dp1067
g4
(lp1068
I5
aI8
aI9
aI16
aI10
asg6
I4
sa(dp1069
g4
(lp1070
I5
aI16
aI1
aI3
aI10
asg6
I4
sa(dp1071
g4
(lp1072
I5
aI16
aI4
aI2
aI12
aI10
asg6
I5
sa(dp1073
g4
(lp1074
I5
aI16
aI1
aI7
aI17
aI10
asg6
I5
sasI11
(lp1075
(dp1076
g4
(lp1077
I5
aI16
aI10
aI11
asg6
I3
sa(dp1078
g4
(lp1079
I5
aI16
aI1
aI3
aI11
asg6
I4
sa(dp1080
g4
(lp1081
I5
aI16
aI10
aI3
aI11
asg6
I4
sa(dp1082
g4
(lp1083
I5
aI8
aI9
aI16
aI10
aI11
asg6
I5
sa(dp1084
g4
(lp1085
I5
aI16
aI1
aI3
aI10
aI11
asg6
I5
sasI12
(lp1086
(dp1087
g4
(lp1088
I5
aI16
aI10
aI12
asg6
I3
sa(dp1089
g4
(lp1090
I5
aI16
aI4
aI2
aI12
asg6
I4
sa(dp1091
g4
(lp1092
I5
aI8
aI9
aI16
aI10
aI12
asg6
I5
sa(dp1093
g4
(lp1094
I5
aI16
aI1
aI7
aI2
aI12
asg6
I5
sa(dp1095
g4
(lp1096
I5
aI16
aI1
aI3
aI10
aI12
asg6
I5
sasI13
(lp1097
(dp1098
g4
(lp1099
I5
aI16
aI10
aI17
aI13
asg6
I4
sa(dp1100
g4
(lp1101
I5
aI16
aI4
aI2
aI13
asg6
I4
sa(dp1102
g4
(lp1103
I5
aI16
aI10
aI3
aI14
aI13
asg6
I5
sa(dp1104
g4
(lp1105
I5
aI16
aI1
aI3
aI14
aI13
asg6
I5
sa(dp1106
g4
(lp1107
I5
aI16
aI10
aI12
aI2
aI13
asg6
I5
sasI14
(lp1108
(dp1109
g4
(lp1110
I5
aI16
aI1
aI3
aI14
asg6
I4
sa(dp1111
g4
(lp1112
I5
aI16
aI10
aI3
aI14
asg6
I4
sa(dp1113
g4
(lp1114
I5
aI16
aI4
aI2
aI13
aI14
asg6
I5
sa(dp1115
g4
(lp1116
I5
aI16
aI10
aI11
aI3
aI14
asg6
I5
sa(dp1117
g4
(lp1118
I5
aI16
aI10
aI17
aI13
aI14
asg6
I5
sasI15
(lp1119
(dp1120
g4
(lp1121
I5
aI8
aI9
aI15
asg6
I3
sa(dp1122
g4
(lp1123
I5
aI16
aI9
aI15
asg6
I3
sa(dp1124
g4
(lp1125
I5
aI16
aI10
aI17
aI20
aI15
asg6
I5
sa(dp1126
g4
(lp1127
I5
aI16
aI1
aI7
aI17
aI20
aI15
asg6
I6
sa(dp1128
g4
(lp1129
I5
aI16
aI10
aI12
aI22
aI20
aI15
asg6
I6
sasI16
(lp1130
(dp1131
g4
(lp1132
I5
aI16
asg6
I1
sa(dp1133
g4
(lp1134
I5
aI8
aI9
aI16
asg6
I3
sa(dp1135
g4
(lp1136
I5
aI8
aI9
aI15
aI20
aI17
aI10
aI16
asg6
I7
sa(dp1137
g4
(lp1138
I5
aI8
aI9
aI15
aI20
aI22
aI12
aI10
aI16
asg6
I8
sa(dp1139
g4
(lp1140
I5
aI8
aI9
aI15
aI20
aI17
aI7
aI1
aI16
asg6
I8
sasI17
(lp1141
(dp1142
g4
(lp1143
I5
aI16
aI10
aI17
asg6
I3
sa(dp1144
g4
(lp1145
I5
aI16
aI1
aI7
aI17
asg6
I4
sa(dp1146
g4
(lp1147
I5
aI8
aI9
aI16
aI10
aI17
asg6
I5
sa(dp1148
g4
(lp1149
I5
aI16
aI4
aI2
aI7
aI17
asg6
I5
sa(dp1150
g4
(lp1151
I5
aI16
aI1
aI3
aI10
aI17
asg6
I5
sasI18
(lp1152
(dp1153
g4
(lp1154
I5
aI16
aI4
aI2
aI18
asg6
I4
sa(dp1155
g4
(lp1156
I5
aI16
aI1
aI3
aI21
aI18
asg6
I5
sa(dp1157
g4
(lp1158
I5
aI16
aI10
aI12
aI2
aI18
asg6
I5
sa(dp1159
g4
(lp1160
I5
aI16
aI1
aI7
aI2
aI18
asg6
I5
sa(dp1161
g4
(lp1162
I5
aI16
aI10
aI3
aI21
aI18
asg6
I5
sasI19
(lp1163
(dp1164
g4
(lp1165
I5
aI16
aI1
aI7
aI19
asg6
I4
sa(dp1166
g4
(lp1167
I5
aI16
aI10
aI17
aI13
aI19
asg6
I5
sa(dp1168
g4
(lp1169
I5
aI16
aI1
aI7
aI6
aI19
asg6
I5
sa(dp1170
g4
(lp1171
I5
aI16
aI4
aI2
aI7
aI19
asg6
I5
sa(dp1172
g4
(lp1173
I5
aI16
aI10
aI17
aI7
aI19
asg6
I5
sasI20
(lp1174
(dp1175
g4
(lp1176
I5
aI16
aI10
aI17
aI20
asg6
I4
sa(dp1177
g4
(lp1178
I5
aI8
aI9
aI15
aI20
asg6
I4
sa(dp1179
g4
(lp1180
I5
aI16
aI9
aI15
aI20
asg6
I4
sa(dp1181
g4
(lp1182
I5
aI16
aI10
aI12
aI22
aI20
asg6
I5
sa(dp1183
g4
(lp1184
I5
aI16
aI1
aI7
aI17
aI20
asg6
I5
sasI21
(lp1185
(dp1186
g4
(lp1187
I5
aI16
aI1
aI3
aI21
asg6
I4
sa(dp1188
g4
(lp1189
I5
aI16
aI10
aI3
aI21
asg6
I4
sa(dp1190
g4
(lp1191
I5
aI16
aI4
aI2
aI18
aI21
asg6
I5
sa(dp1192
g4
(lp1193
I5
aI16
aI10
aI11
aI3
aI21
asg6
I5
sa(dp1194
g4
(lp1195
I5
aI8
aI9
aI16
aI1
aI3
aI21
asg6
I6
sasI22
(lp1196
(dp1197
g4
(lp1198
I5
aI16
aI10
aI12
aI22
asg6
I4
sa(dp1199
g4
(lp1200
I5
aI8
aI9
aI15
aI20
aI22
asg6
I5
sa(dp1201
g4
(lp1202
I5
aI16
aI4
aI2
aI12
aI22
asg6
I5
sa(dp1203
g4
(lp1204
I5
aI16
aI10
aI17
aI20
aI22
asg6
I5
sa(dp1205
g4
(lp1206
I5
aI16
aI9
aI15
aI20
aI22
asg6
I5
sasI23
(lp1207
(dp1208
g4
(lp1209
I5
aI16
aI10
aI17
aI23
asg6
I4
sa(dp1210
g4
(lp1211
I5
aI16
aI4
aI2
aI23
asg6
I4
sa(dp1212
g4
(lp1213
I5
aI16
aI10
aI12
aI2
aI23
asg6
I5
sa(dp1214
g4
(lp1215
I5
aI16
aI1
aI7
aI17
aI23
asg6
I5
sa(dp1216
g4
(lp1217
I5
aI16
aI1
aI7
aI2
aI23
asg6
I5
sassI6
(dp1218
I1
(dp1219
I0
(dp1220
g4
(lp1221
I6
aI7
aI1
asg6
I2
ssI1
(dp1222
g4
(lp1223
I6
aI19
aI7
aI1
asg6
I3
ssI2
(dp1224
g4
(lp1225
I6
aI19
aI13
aI14
aI3
aI1
asg6
I5
ssI3
(dp1226
g4
(lp1227
I6
aI19
aI13
aI17
aI7
aI1
asg6
I5
ssI4
(dp1228
g4
(lp1229
I6
aI7
aI2
aI4
aI16
aI1
asg6
I5
sssI2
(dp1230
I0
(dp1231
g4
(lp1232
I6
aI7
aI2
asg6
I2
ssI1
(dp1233
g4
(lp1234
I6
aI19
aI13
aI2
asg6
I3
ssI2
(dp1235
g4
(lp1236
I6
aI19
aI7
aI2
asg6
I3
ssI3
(dp1237
g4
(lp1238
I6
aI7
aI17
aI23
aI2
asg6
I4
ssI4
(dp1239
g4
(lp1240
I6
aI7
aI17
aI13
aI2
asg6
I4
sssI3
(dp1241
I0
(dp1242
g4
(lp1243
I6
aI7
aI1
aI3
asg6
I3
ssI1
(dp1244
g4
(lp1245
I6
aI7
aI17
aI10
aI3
asg6
I4
ssI2
(dp1246
g4
(lp1247
I6
aI19
aI7
aI1
aI3
asg6
I4
ssI3
(dp1248
g4
(lp1249
I6
aI19
aI13
aI14
aI3
asg6
I4
ssI4
(dp1250
g4
(lp1251
I6
aI7
aI1
aI16
aI10
aI3
asg6
I5
sssI4
(dp1252
I0
(dp1253
g4
(lp1254
I6
aI7
aI2
aI4
asg6
I3
ssI1
(dp1255
g4
(lp1256
I6
aI7
aI1
aI16
aI4
asg6
I4
ssI2
(dp1257
g4
(lp1258
I6
aI19
aI13
aI2
aI4
asg6
I4
ssI3
(dp1259
g4
(lp1260
I6
aI19
aI7
aI2
aI4
asg6
I4
ssI4
(dp1261
g4
(lp1262
I6
aI7
aI17
aI10
aI16
aI4
asg6
I5
sssI5
(dp1263
I0
(dp1264
g4
(lp1265
I6
aI7
aI1
aI16
aI5
asg6
I4
ssI1
(dp1266
g4
(lp1267
I6
aI7
aI17
aI10
aI16
aI5
asg6
I5
ssI2
(dp1268
g4
(lp1269
I6
aI19
aI7
aI1
aI16
aI5
asg6
I5
ssI3
(dp1270
g4
(lp1271
I6
aI7
aI2
aI4
aI16
aI5
asg6
I5
ssI4
(dp1272
g4
(lp1273
I6
aI7
aI1
aI16
aI9
aI8
aI5
asg6
I6
sssI7
(lp1274
(dp1275
g4
(lp1276
I6
aI7
asg6
I1
sa(dp1277
g4
(lp1278
I6
aI19
aI7
asg6
I2
sa(dp1279
g4
(lp1280
I6
aI19
aI13
aI2
aI7
asg6
I4
sa(dp1281
g4
(lp1282
I6
aI19
aI13
aI17
aI7
asg6
I4
sa(dp1283
g4
(lp1284
I6
aI19
aI13
aI2
aI23
aI17
aI7
asg6
I6
sasI8
(lp1285
(dp1286
g4
(lp1287
I6
aI7
aI1
aI16
aI9
aI8
asg6
I5
sa(dp1288
g4
(lp1289
I6
aI7
aI1
aI16
aI5
aI8
asg6
I5
sa(dp1290
g4
(lp1291
I6
aI19
aI7
aI1
aI16
aI9
aI8
asg6
I6
sa(dp1292
g4
(lp1293
I6
aI7
aI2
aI4
aI16
aI9
aI8
asg6
I6
sa(dp1294
g4
(lp1295
I6
aI19
aI7
aI1
aI16
aI5
aI8
asg6
I6
sasI9
(lp1296
(dp1297
g4
(lp1298
I6
aI7
aI1
aI16
aI9
asg6
I4
sa(dp1299
g4
(lp1300
I6
aI19
aI7
aI1
aI16
aI9
asg6
I5
sa(dp1301
g4
(lp1302
I6
aI7
aI17
aI10
aI16
aI9
asg6
I5
sa(dp1303
g4
(lp1304
I6
aI7
aI2
aI4
aI16
aI9
asg6
I5
sa(dp1305
g4
(lp1306
I6
aI7
aI17
aI20
aI15
aI9
asg6
I5
sasI10
(lp1307
(dp1308
g4
(lp1309
I6
aI7
aI17
aI10
asg6
I3
sa(dp1310
g4
(lp1311
I6
aI19
aI13
aI17
aI10
asg6
I4
sa(dp1312
g4
(lp1313
I6
aI7
aI1
aI16
aI10
asg6
I4
sa(dp1314
g4
(lp1315
I6
aI19
aI7
aI17
aI10
asg6
I4
sa(dp1316
g4
(lp1317
I6
aI7
aI2
aI12
aI10
asg6
I4
sasI11
(lp1318
(dp1319
g4
(lp1320
I6
aI7
aI17
aI10
aI11
asg6
I4
sa(dp1321
g4
(lp1322
I6
aI7
aI1
aI3
aI11
asg6
I4
sa(dp1323
g4
(lp1324
I6
aI19
aI13
aI17
aI10
aI11
asg6
I5
sa(dp1325
g4
(lp1326
I6
aI7
aI17
aI10
aI3
aI11
asg6
I5
sa(dp1327
g4
(lp1328
I6
aI7
aI2
aI12
aI10
aI11
asg6
I5
sasI12
(lp1329
(dp1330
g4
(lp1331
I6
aI7
aI2
aI12
asg6
I3
sa(dp1332
g4
(lp1333
I6
aI19
aI13
aI2
aI12
asg6
I4
sa(dp1334
g4
(lp1335
I6
aI7
aI17
aI10
aI12
asg6
I4
sa(dp1336
g4
(lp1337
I6
aI19
aI7
aI2
aI12
asg6
I4
sa(dp1338
g4
(lp1339
I6
aI19
aI13
aI17
aI10
aI12
asg6
I5
sasI13
(lp1340
(dp1341
g4
(lp1342
I6
aI19
aI13
asg6
I2
sa(dp1343
g4
(lp1344
I6
aI7
aI17
aI13
asg6
I3
sa(dp1345
g4
(lp1346
I6
aI7
aI2
aI13
asg6
I3
sa(dp1347
g4
(lp1348
I6
aI7
aI19
aI13
asg6
I3
sa(dp1349
g4
(lp1350
I6
aI19
aI7
aI17
aI13
asg6
I4
sasI14
(lp1351
(dp1352
g4
(lp1353
I6
aI19
aI13
aI14
asg6
I3
sa(dp1354
g4
(lp1355
I6
aI7
aI1
aI3
aI14
asg6
I4
sa(dp1356
g4
(lp1357
I6
aI7
aI17
aI13
aI14
asg6
I4
sa(dp1358
g4
(lp1359
I6
aI7
aI2
aI13
aI14
asg6
I4
sa(dp1360
g4
(lp1361
I6
aI7
aI19
aI13
aI14
asg6
I4
sasI15
(lp1362
(dp1363
g4
(lp1364
I6
aI7
aI17
aI20
aI15
asg6
I4
sa(dp1365
g4
(lp1366
I6
aI19
aI13
aI17
aI20
aI15
asg6
I5
sa(dp1367
g4
(lp1368
I6
aI7
aI1
aI16
aI9
aI15
asg6
I5
sa(dp1369
g4
(lp1370
I6
aI19
aI7
aI17
aI20
aI15
asg6
I5
sa(dp1371
g4
(lp1372
I6
aI7
aI17
aI10
aI16
aI9
aI15
asg6
I6
sasI16
(lp1373
(dp1374
g4
(lp1375
I6
aI7
aI1
aI16
asg6
I3
sa(dp1376
g4
(lp1377
I6
aI19
aI7
aI1
aI16
asg6
I4
sa(dp1378
g4
(lp1379
I6
aI7
aI2
aI4
aI16
asg6
I4
sa(dp1380
g4
(lp1381
I6
aI7
aI17
aI10
aI16
asg6
I4
sa(dp1382
g4
(lp1383
I6
aI7
aI1
aI3
aI10
aI16
asg6
I5
sasI17
(lp1384
(dp1385
g4
(lp1386
I6
aI7
aI17
asg6
I2
sa(dp1387
g4
(lp1388
I6
aI19
aI13
aI17
asg6
I3
sa(dp1389
g4
(lp1390
I6
aI19
aI7
aI17
asg6
I3
sa(dp1391
g4
(lp1392
I6
aI7
aI2
aI13
aI17
asg6
I4
sa(dp1393
g4
(lp1394
I6
aI7
aI19
aI13
aI17
asg6
I4
sasI18
(lp1395
(dp1396
g4
(lp1397
I6
aI7
aI2
aI18
asg6
I3
sa(dp1398
g4
(lp1399
I6
aI19
aI13
aI2
aI18
asg6
I4
sa(dp1400
g4
(lp1401
I6
aI19
aI7
aI2
aI18
asg6
I4
sa(dp1402
g4
(lp1403
I6
aI7
aI1
aI3
aI21
aI18
asg6
I5
sa(dp1404
g4
(lp1405
I6
aI7
aI19
aI13
aI2
aI18
asg6
I5
sasI19
(lp1406
(dp1407
g4
(lp1408
I6
aI19
asg6
I1
sa(dp1409
g4
(lp1410
I6
aI7
aI19
asg6
I2
sa(dp1411
g4
(lp1412
I6
aI7
aI17
aI13
aI19
asg6
I4
sa(dp1413
g4
(lp1414
I6
aI7
aI2
aI13
aI19
asg6
I4
sa(dp1415
g4
(lp1416
I6
aI7
aI17
aI23
aI2
aI13
aI19
asg6
I6
sasI20
(lp1417
(dp1418
g4
(lp1419
I6
aI7
aI17
aI20
asg6
I3
sa(dp1420
g4
(lp1421
I6
aI19
aI13
aI17
aI20
asg6
I4
sa(dp1422
g4
(lp1423
I6
aI19
aI7
aI17
aI20
asg6
I4
sa(dp1424
g4
(lp1425
I6
aI7
aI2
aI23
aI17
aI20
asg6
I5
sa(dp1426
g4
(lp1427
I6
aI7
aI19
aI13
aI17
aI20
asg6
I5
sasI21
(lp1428
(dp1429
g4
(lp1430
I6
aI7
aI2
aI18
aI21
asg6
I4
sa(dp1431
g4
(lp1432
I6
aI7
aI1
aI3
aI21
asg6
I4
sa(dp1433
g4
(lp1434
I6
aI19
aI13
aI2
aI18
aI21
asg6
I5
sa(dp1435
g4
(lp1436
I6
aI7
aI17
aI10
aI3
aI21
asg6
I5
sa(dp1437
g4
(lp1438
I6
aI19
aI7
aI2
aI18
aI21
asg6
I5
sasI22
(lp1439
(dp1440
g4
(lp1441
I6
aI7
aI17
aI20
aI22
asg6
I4
sa(dp1442
g4
(lp1443
I6
aI7
aI2
aI12
aI22
asg6
I4
sa(dp1444
g4
(lp1445
I6
aI19
aI13
aI17
aI20
aI22
asg6
I5
sa(dp1446
g4
(lp1447
I6
aI7
aI17
aI10
aI12
aI22
asg6
I5
sa(dp1448
g4
(lp1449
I6
aI19
aI7
aI17
aI20
aI22
asg6
I5
sasI23
(lp1450
(dp1451
g4
(lp1452
I6
aI7
aI2
aI23
asg6
I3
sa(dp1453
g4
(lp1454
I6
aI7
aI17
aI23
asg6
I3
sa(dp1455
g4
(lp1456
I6
aI19
aI13
aI17
aI23
asg6
I4
sa(dp1457
g4
(lp1458
I6
aI19
aI7
aI17
aI23
asg6
I4
sa(dp1459
g4
(lp1460
I6
aI19
aI13
aI2
aI23
asg6
I4
sassI7
(dp1461
I1
(dp1462
I0
(dp1463
g4
(lp1464
I7
aI1
asg6
I1
ssI1
(dp1465
g4
(lp1466
I7
aI2
aI4
aI16
aI1
asg6
I4
ssI2
(dp1467
g4
(lp1468
I7
aI17
aI10
aI3
aI1
asg6
I4
ssI3
(dp1469
g4
(lp1470
I7
aI17
aI10
aI16
aI1
asg6
I4
ssI4
(dp1471
g4
(lp1472
I7
aI17
aI10
aI11
aI3
aI1
asg6
I5
sssI2
(dp1473
I0
(dp1474
g4
(lp1475
I7
aI2
asg6
I1
ssI1
(dp1476
g4
(lp1477
I7
aI19
aI13
aI2
asg6
I3
ssI2
(dp1478
g4
(lp1479
I7
aI17
aI23
aI2
asg6
I3
ssI3
(dp1480
g4
(lp1481
I7
aI17
aI13
aI2
asg6
I3
ssI4
(dp1482
g4
(lp1483
I7
aI6
aI19
aI13
aI2
asg6
I4
sssI3
(dp1484
I0
(dp1485
g4
(lp1486
I7
aI1
aI3
asg6
I2
ssI1
(dp1487
g4
(lp1488
I7
aI17
aI10
aI3
asg6
I3
ssI2
(dp1489
g4
(lp1490
I7
aI17
aI10
aI11
aI3
asg6
I4
ssI3
(dp1491
g4
(lp1492
I7
aI1
aI16
aI10
aI3
asg6
I4
ssI4
(dp1493
g4
(lp1494
I7
aI2
aI18
aI21
aI3
asg6
I4
sssI4
(dp1495
I0
(dp1496
g4
(lp1497
I7
aI2
aI4
asg6
I2
ssI1
(dp1498
g4
(lp1499
I7
aI1
aI16
aI4
asg6
I3
ssI2
(dp1500
g4
(lp1501
I7
aI17
aI13
aI2
aI4
asg6
I4
ssI3
(dp1502
g4
(lp1503
I7
aI17
aI10
aI16
aI4
asg6
I4
ssI4
(dp1504
g4
(lp1505
I7
aI17
aI23
aI2
aI4
asg6
I4
sssI5
(dp1506
I0
(dp1507
g4
(lp1508
I7
aI1
aI16
aI5
asg6
I3
ssI1
(dp1509
g4
(lp1510
I7
aI17
aI10
aI16
aI5
asg6
I4
ssI2
(dp1511
g4
(lp1512
I7
aI2
aI4
aI16
aI5
asg6
I4
ssI3
(dp1513
g4
(lp1514
I7
aI1
aI16
aI9
aI8
aI5
asg6
I5
ssI4
(dp1515
g4
(lp1516
I7
aI1
aI3
aI10
aI16
aI5
asg6
I5
sssI6
(dp1517
I0
(dp1518
g4
(lp1519
I7
aI6
asg6
I1
ssI1
(dp1520
g4
(lp1521
I7
aI19
aI6
asg6
I2
ssI2
(dp1522
g4
(lp1523
I7
aI2
aI13
aI19
aI6
asg6
I4
ssI3
(dp1524
g4
(lp1525
I7
aI17
aI13
aI19
aI6
asg6
I4
ssI4
(dp1526
g4
(lp1527
I7
aI17
aI23
aI2
aI13
aI19
aI6
asg6
I6
sssI8
(lp1528
(dp1529
g4
(lp1530
I7
aI1
aI16
aI9
aI8
asg6
I4
sa(dp1531
g4
(lp1532
I7
aI1
aI16
aI5
aI8
asg6
I4
sa(dp1533
g4
(lp1534
I7
aI2
aI4
aI16
aI9
aI8
asg6
I5
sa(dp1535
g4
(lp1536
I7
aI17
aI10
aI16
aI9
aI8
asg6
I5
sa(dp1537
g4
(lp1538
I7
aI2
aI4
aI16
aI5
aI8
asg6
I5
sasI9
(lp1539
(dp1540
g4
(lp1541
I7
aI1
aI16
aI9
asg6
I3
sa(dp1542
g4
(lp1543
I7
aI2
aI4
aI16
aI9
asg6
I4
sa(dp1544
g4
(lp1545
I7
aI17
aI10
aI16
aI9
asg6
I4
sa(dp1546
g4
(lp1547
I7
aI17
aI20
aI15
aI9
asg6
I4
sa(dp1548
g4
(lp1549
I7
aI1
aI3
aI10
aI16
aI9
asg6
I5
sasI10
(lp1550
(dp1551
g4
(lp1552
I7
aI17
aI10
asg6
I2
sa(dp1553
g4
(lp1554
I7
aI1
aI16
aI10
asg6
I3
sa(dp1555
g4
(lp1556
I7
aI2
aI12
aI10
asg6
I3
sa(dp1557
g4
(lp1558
I7
aI1
aI3
aI10
asg6
I3
sa(dp1559
g4
(lp1560
I7
aI19
aI13
aI17
aI10
asg6
I4
sasI11
(lp1561
(dp1562
g4
(lp1563
I7
aI17
aI10
aI11
asg6
I3
sa(dp1564
g4
(lp1565
I7
aI1
aI3
aI11
asg6
I3
sa(dp1566
g4
(lp1567
I7
aI17
aI10
aI3
aI11
asg6
I4
sa(dp1568
g4
(lp1569
I7
aI2
aI12
aI10
aI11
asg6
I4
sa(dp1570
g4
(lp1571
I7
aI1
aI16
aI10
aI11
asg6
I4
sasI12
(lp1572
(dp1573
g4
(lp1574
I7
aI2
aI12
asg6
I2
sa(dp1575
g4
(lp1576
I7
aI17
aI10
aI12
asg6
I3
sa(dp1577
g4
(lp1578
I7
aI1
aI16
aI10
aI12
asg6
I4
sa(dp1579
g4
(lp1580
I7
aI17
aI23
aI2
aI12
asg6
I4
sa(dp1581
g4
(lp1582
I7
aI19
aI13
aI2
aI12
asg6
I4
sasI13
(lp1583
(dp1584
g4
(lp1585
I7
aI17
aI13
asg6
I2
sa(dp1586
g4
(lp1587
I7
aI2
aI13
asg6
I2
sa(dp1588
g4
(lp1589
I7
aI19
aI13
asg6
I2
sa(dp1590
g4
(lp1591
I7
aI6
aI19
aI13
asg6
I3
sa(dp1592
g4
(lp1593
I7
aI17
aI23
aI2
aI13
asg6
I4
sasI14
(lp1594
(dp1595
g4
(lp1596
I7
aI1
aI3
aI14
asg6
I3
sa(dp1597
g4
(lp1598
I7
aI17
aI13
aI14
asg6
I3
sa(dp1599
g4
(lp1600
I7
aI2
aI13
aI14
asg6
I3
sa(dp1601
g4
(lp1602
I7
aI19
aI13
aI14
asg6
I3
sa(dp1603
g4
(lp1604
I7
aI17
aI10
aI3
aI14
asg6
I4
sasI15
(lp1605
(dp1606
g4
(lp1607
I7
aI17
aI20
aI15
asg6
I3
sa(dp1608
g4
(lp1609
I7
aI1
aI16
aI9
aI15
asg6
I4
sa(dp1610
g4
(lp1611
I7
aI17
aI10
aI16
aI9
aI15
asg6
I5
sa(dp1612
g4
(lp1613
I7
aI2
aI4
aI16
aI9
aI15
asg6
I5
sa(dp1614
g4
(lp1615
I7
aI19
aI13
aI17
aI20
aI15
asg6
I5
sasI16
(lp1616
(dp1617
g4
(lp1618
I7
aI1
aI16
asg6
I2
sa(dp1619
g4
(lp1620
I7
aI2
aI4
aI16
asg6
I3
sa(dp1621
g4
(lp1622
I7
aI17
aI10
aI16
asg6
I3
sa(dp1623
g4
(lp1624
I7
aI1
aI3
aI10
aI16
asg6
I4
sa(dp1625
g4
(lp1626
I7
aI2
aI12
aI10
aI16
asg6
I4
sasI17
(lp1627
(dp1628
g4
(lp1629
I7
aI17
asg6
I1
sa(dp1630
g4
(lp1631
I7
aI2
aI13
aI17
asg6
I3
sa(dp1632
g4
(lp1633
I7
aI19
aI13
aI17
asg6
I3
sa(dp1634
g4
(lp1635
I7
aI2
aI23
aI17
asg6
I3
sa(dp1636
g4
(lp1637
I7
aI1
aI16
aI10
aI17
asg6
I4
sasI18
(lp1638
(dp1639
g4
(lp1640
I7
aI2
aI18
asg6
I2
sa(dp1641
g4
(lp1642
I7
aI1
aI3
aI21
aI18
asg6
I4
sa(dp1643
g4
(lp1644
I7
aI19
aI13
aI2
aI18
asg6
I4
sa(dp1645
g4
(lp1646
I7
aI17
aI13
aI2
aI18
asg6
I4
sa(dp1647
g4
(lp1648
I7
aI17
aI23
aI2
aI18
asg6
I4
sasI19
(lp1649
(dp1650
g4
(lp1651
I7
aI19
asg6
I1
sa(dp1652
g4
(lp1653
I7
aI6
aI19
asg6
I2
sa(dp1654
g4
(lp1655
I7
aI17
aI13
aI19
asg6
I3
sa(dp1656
g4
(lp1657
I7
aI2
aI13
aI19
asg6
I3
sa(dp1658
g4
(lp1659
I7
aI17
aI23
aI2
aI13
aI19
asg6
I5
sasI20
(lp1660
(dp1661
g4
(lp1662
I7
aI17
aI20
asg6
I2
sa(dp1663
g4
(lp1664
I7
aI2
aI12
aI22
aI20
asg6
I4
sa(dp1665
g4
(lp1666
I7
aI19
aI13
aI17
aI20
asg6
I4
sa(dp1667
g4
(lp1668
I7
aI2
aI23
aI17
aI20
asg6
I4
sa(dp1669
g4
(lp1670
I7
aI2
aI13
aI17
aI20
asg6
I4
sasI21
(lp1671
(dp1672
g4
(lp1673
I7
aI2
aI18
aI21
asg6
I3
sa(dp1674
g4
(lp1675
I7
aI1
aI3
aI21
asg6
I3
sa(dp1676
g4
(lp1677
I7
aI17
aI10
aI3
aI21
asg6
I4
sa(dp1678
g4
(lp1679
I7
aI2
aI12
aI10
aI3
aI21
asg6
I5
sa(dp1680
g4
(lp1681
I7
aI1
aI16
aI10
aI3
aI21
asg6
I5
sasI22
(lp1682
(dp1683
g4
(lp1684
I7
aI17
aI20
aI22
asg6
I3
sa(dp1685
g4
(lp1686
I7
aI2
aI12
aI22
asg6
I3
sa(dp1687
g4
(lp1688
I7
aI17
aI10
aI12
aI22
asg6
I4
sa(dp1689
g4
(lp1690
I7
aI1
aI16
aI10
aI12
aI22
asg6
I5
sa(dp1691
g4
(lp1692
I7
aI2
aI23
aI17
aI20
aI22
asg6
I5
sasI23
(lp1693
(dp1694
g4
(lp1695
I7
aI17
aI23
asg6
I2
sa(dp1696
g4
(lp1697
I7
aI2
aI23
asg6
I2
sa(dp1698
g4
(lp1699
I7
aI17
aI13
aI2
aI23
asg6
I4
sa(dp1700
g4
(lp1701
I7
aI19
aI13
aI17
aI23
asg6
I4
sa(dp1702
g4
(lp1703
I7
aI2
aI13
aI17
aI23
asg6
I4
sassI8
(dp1704
I1
(dp1705
I0
(dp1706
g4
(lp1707
I8
aI9
aI16
aI1
asg6
I3
ssI1
(dp1708
g4
(lp1709
I8
aI5
aI16
aI1
asg6
I3
ssI2
(dp1710
g4
(lp1711
I8
aI9
aI16
aI10
aI3
aI1
asg6
I5
ssI3
(dp1712
g4
(lp1713
I8
aI5
aI16
aI10
aI3
aI1
asg6
I5
ssI4
(dp1714
g4
(lp1715
I8
aI9
aI16
aI10
aI17
aI7
aI1
asg6
I6
sssI2
(dp1716
I0
(dp1717
g4
(lp1718
I8
aI9
aI16
aI4
aI2
asg6
I4
ssI1
(dp1719
g4
(lp1720
I8
aI5
aI16
aI4
aI2
asg6
I4
ssI2
(dp1721
g4
(lp1722
I8
aI9
aI16
aI1
aI7
aI2
asg6
I5
ssI3
(dp1723
g4
(lp1724
I8
aI9
aI16
aI10
aI12
aI2
asg6
I5
ssI4
(dp1725
g4
(lp1726
I8
aI5
aI16
aI1
aI7
aI2
asg6
I5
sssI3
(dp1727
I0
(dp1728
g4
(lp1729
I8
aI9
aI16
aI1
aI3
asg6
I4
ssI1
(dp1730
g4
(lp1731
I8
aI9
aI16
aI10
aI3
asg6
I4
ssI2
(dp1732
g4
(lp1733
I8
aI5
aI16
aI1
aI3
asg6
I4
ssI3
(dp1734
g4
(lp1735
I8
aI5
aI16
aI10
aI3
asg6
I4
ssI4
(dp1736
g4
(lp1737
I8
aI9
aI16
aI10
aI11
aI3
asg6
I5
sssI4
(dp1738
I0
(dp1739
g4
(lp1740
I8
aI5
aI16
aI4
asg6
I3
ssI1
(dp1741
g4
(lp1742
I8
aI9
aI16
aI4
asg6
I3
ssI2
(dp1743
g4
(lp1744
I8
aI9
aI16
aI1
aI7
aI2
aI4
asg6
I6
ssI3
(dp1745
g4
(lp1746
I8
aI9
aI16
aI10
aI12
aI2
aI4
asg6
I6
ssI4
(dp1747
g4
(lp1748
I8
aI5
aI16
aI1
aI7
aI2
aI4
asg6
I6
sssI5
(dp1749
I0
(dp1750
g4
(lp1751
I8
aI5
asg6
I1
ssI1
(dp1752
g4
(lp1753
I8
aI9
aI16
aI5
asg6
I3
ssI2
(dp1754
g4
(lp1755
I8
aI9
aI15
aI20
aI17
aI10
aI16
aI5
asg6
I7
ssI3
(dp1756
g4
(lp1757
I8
aI9
aI15
aI20
aI17
aI7
aI1
aI16
aI5
asg6
I8
ssI4
(dp1758
g4
(lp1759
I8
aI9
aI15
aI20
aI22
aI12
aI10
aI16
aI5
asg6
I8
sssI6
(dp1760
I0
(dp1761
g4
(lp1762
I8
aI9
aI16
aI1
aI7
aI6
asg6
I5
ssI1
(dp1763
g4
(lp1764
I8
aI5
aI16
aI1
aI7
aI6
asg6
I5
ssI2
(dp1765
g4
(lp1766
I8
aI9
aI16
aI1
aI7
aI19
aI6
asg6
I6
ssI3
(dp1767
g4
(lp1768
I8
aI9
aI16
aI4
aI2
aI7
aI6
asg6
I6
ssI4
(dp1769
g4
(lp1770
I8
aI5
aI16
aI1
aI7
aI19
aI6
asg6
I6
sssI7
(dp1771
I0
(dp1772
g4
(lp1773
I8
aI9
aI16
aI1
aI7
asg6
I4
ssI1
(dp1774
g4
(lp1775
I8
aI5
aI16
aI1
aI7
asg6
I4
ssI2
(dp1776
g4
(lp1777
I8
aI9
aI16
aI4
aI2
aI7
asg6
I5
ssI3
(dp1778
g4
(lp1779
I8
aI9
aI16
aI10
aI17
aI7
asg6
I5
ssI4
(dp1780
g4
(lp1781
I8
aI5
aI16
aI4
aI2
aI7
asg6
I5
sssI9
(lp1782
(dp1783
g4
(lp1784
I8
aI9
asg6
I1
sa(dp1785
g4
(lp1786
I8
aI5
aI16
aI9
asg6
I3
sa(dp1787
g4
(lp1788
I8
aI5
aI16
aI10
aI17
aI20
aI15
aI9
asg6
I7
sa(dp1789
g4
(lp1790
I8
aI5
aI16
aI1
aI7
aI17
aI20
aI15
aI9
asg6
I8
sa(dp1791
g4
(lp1792
I8
aI5
aI16
aI10
aI12
aI22
aI20
aI15
aI9
asg6
I8
sasI10
(lp1793
(dp1794
g4
(lp1795
I8
aI9
aI16
aI10
asg6
I3
sa(dp1796
g4
(lp1797
I8
aI5
aI16
aI10
asg6
I3
sa(dp1798
g4
(lp1799
I8
aI9
aI15
aI20
aI17
aI10
asg6
I5
sa(dp1800
g4
(lp1801
I8
aI9
aI16
aI1
aI3
aI10
asg6
I5
sa(dp1802
g4
(lp1803
I8
aI5
aI16
aI1
aI3
aI10
asg6
I5
sasI11
(lp1804
(dp1805
g4
(lp1806
I8
aI9
aI16
aI10
aI11
asg6
I4
sa(dp1807
g4
(lp1808
I8
aI5
aI16
aI10
aI11
asg6
I4
sa(dp1809
g4
(lp1810
I8
aI9
aI16
aI1
aI3
aI11
asg6
I5
sa(dp1811
g4
(lp1812
I8
aI9
aI16
aI10
aI3
aI11
asg6
I5
sa(dp1813
g4
(lp1814
I8
aI5
aI16
aI1
aI3
aI11
asg6
I5
sasI12
(lp1815
(dp1816
g4
(lp1817
I8
aI9
aI16
aI10
aI12
asg6
I4
sa(dp1818
g4
(lp1819
I8
aI5
aI16
aI10
aI12
asg6
I4
sa(dp1820
g4
(lp1821
I8
aI9
aI15
aI20
aI22
aI12
asg6
I5
sa(dp1822
g4
(lp1823
I8
aI9
aI16
aI4
aI2
aI12
asg6
I5
sa(dp1824
g4
(lp1825
I8
aI5
aI16
aI4
aI2
aI12
asg6
I5
sasI13
(lp1826
(dp1827
g4
(lp1828
I8
aI9
aI16
aI10
aI17
aI13
asg6
I5
sa(dp1829
g4
(lp1830
I8
aI5
aI16
aI10
aI17
aI13
asg6
I5
sa(dp1831
g4
(lp1832
I8
aI9
aI15
aI20
aI17
aI13
asg6
I5
sa(dp1833
g4
(lp1834
I8
aI9
aI16
aI4
aI2
aI13
asg6
I5
sa(dp1835
g4
(lp1836
I8
aI5
aI16
aI4
aI2
aI13
asg6
I5
sasI14
(lp1837
(dp1838
g4
(lp1839
I8
aI9
aI16
aI1
aI3
aI14
asg6
I5
sa(dp1840
g4
(lp1841
I8
aI5
aI16
aI1
aI3
aI14
asg6
I5
sa(dp1842
g4
(lp1843
I8
aI9
aI16
aI10
aI3
aI14
asg6
I5
sa(dp1844
g4
(lp1845
I8
aI5
aI16
aI10
aI3
aI14
asg6
I5
sa(dp1846
g4
(lp1847
I8
aI9
aI15
aI20
aI17
aI13
aI14
asg6
I6
sasI15
(lp1848
(dp1849
g4
(lp1850
I8
aI9
aI15
asg6
I2
sa(dp1851
g4
(lp1852
I8
aI5
aI16
aI9
aI15
asg6
I4
sa(dp1853
g4
(lp1854
I8
aI9
aI16
aI10
aI17
aI20
aI15
asg6
I6
sa(dp1855
g4
(lp1856
I8
aI5
aI16
aI10
aI17
aI20
aI15
asg6
I6
sa(dp1857
g4
(lp1858
I8
aI9
aI16
aI1
aI7
aI17
aI20
aI15
asg6
I7
sasI16
(lp1859
(dp1860
g4
(lp1861
I8
aI5
aI16
asg6
I2
sa(dp1862
g4
(lp1863
I8
aI9
aI16
asg6
I2
sa(dp1864
g4
(lp1865
I8
aI9
aI15
aI20
aI17
aI10
aI16
asg6
I6
sa(dp1866
g4
(lp1867
I8
aI9
aI15
aI20
aI22
aI12
aI10
aI16
asg6
I7
sa(dp1868
g4
(lp1869
I8
aI9
aI15
aI20
aI17
aI7
aI1
aI16
asg6
I7
sasI17
(lp1870
(dp1871
g4
(lp1872
I8
aI9
aI16
aI10
aI17
asg6
I4
sa(dp1873
g4
(lp1874
I8
aI5
aI16
aI10
aI17
asg6
I4
sa(dp1875
g4
(lp1876
I8
aI9
aI15
aI20
aI17
asg6
I4
sa(dp1877
g4
(lp1878
I8
aI9
aI16
aI1
aI7
aI17
asg6
I5
sa(dp1879
g4
(lp1880
I8
aI5
aI16
aI1
aI7
aI17
asg6
I5
sasI18
(lp1881
(dp1882
g4
(lp1883
I8
aI9
aI16
aI4
aI2
aI18
asg6
I5
sa(dp1884
g4
(lp1885
I8
aI5
aI16
aI4
aI2
aI18
asg6
I5
sa(dp1886
g4
(lp1887
I8
aI9
aI16
aI1
aI3
aI21
aI18
asg6
I6
sa(dp1888
g4
(lp1889
I8
aI5
aI16
aI1
aI3
aI21
aI18
asg6
I6
sa(dp1890
g4
(lp1891
I8
aI9
aI16
aI10
aI12
aI2
aI18
asg6
I6
sasI19
(lp1892
(dp1893
g4
(lp1894
I8
aI9
aI16
aI1
aI7
aI19
asg6
I5
sa(dp1895
g4
(lp1896
I8
aI5
aI16
aI1
aI7
aI19
asg6
I5
sa(dp1897
g4
(lp1898
I8
aI9
aI15
aI20
aI17
aI13
aI19
asg6
I6
sa(dp1899
g4
(lp1900
I8
aI9
aI16
aI10
aI17
aI13
aI19
asg6
I6
sa(dp1901
g4
(lp1902
I8
aI9
aI16
aI1
aI7
aI6
aI19
asg6
I6
sasI20
(lp1903
(dp1904
g4
(lp1905
I8
aI9
aI15
aI20
asg6
I3
sa(dp1906
g4
(lp1907
I8
aI5
aI16
aI10
aI17
aI20
asg6
I5
sa(dp1908
g4
(lp1909
I8
aI9
aI16
aI10
aI17
aI20
asg6
I5
sa(dp1910
g4
(lp1911
I8
aI5
aI16
aI9
aI15
aI20
asg6
I5
sa(dp1912
g4
(lp1913
I8
aI5
aI16
aI10
aI12
aI22
aI20
asg6
I6
sasI21
(lp1914
(dp1915
g4
(lp1916
I8
aI9
aI16
aI1
aI3
aI21
asg6
I5
sa(dp1917
g4
(lp1918
I8
aI5
aI16
aI1
aI3
aI21
asg6
I5
sa(dp1919
g4
(lp1920
I8
aI9
aI16
aI10
aI3
aI21
asg6
I5
sa(dp1921
g4
(lp1922
I8
aI5
aI16
aI10
aI3
aI21
asg6
I5
sa(dp1923
g4
(lp1924
I8
aI9
aI16
aI4
aI2
aI18
aI21
asg6
I6
sasI22
(lp1925
(dp1926
g4
(lp1927
I8
aI9
aI15
aI20
aI22
asg6
I4
sa(dp1928
g4
(lp1929
I8
aI5
aI16
aI10
aI12
aI22
asg6
I5
sa(dp1930
g4
(lp1931
I8
aI9
aI16
aI10
aI12
aI22
asg6
I5
sa(dp1932
g4
(lp1933
I8
aI5
aI16
aI4
aI2
aI12
aI22
asg6
I6
sa(dp1934
g4
(lp1935
I8
aI5
aI16
aI10
aI17
aI20
aI22
asg6
I6
sasI23
(lp1936
(dp1937
g4
(lp1938
I8
aI9
aI16
aI10
aI17
aI23
asg6
I5
sa(dp1939
g4
(lp1940
I8
aI5
aI16
aI10
aI17
aI23
asg6
I5
sa(dp1941
g4
(lp1942
I8
aI9
aI15
aI20
aI17
aI23
asg6
I5
sa(dp1943
g4
(lp1944
I8
aI9
aI16
aI4
aI2
aI23
asg6
I5
sa(dp1945
g4
(lp1946
I8
aI5
aI16
aI4
aI2
aI23
asg6
I5
sassI9
(dp1947
I1
(dp1948
I0
(dp1949
g4
(lp1950
I9
aI16
aI1
asg6
I2
ssI1
(dp1951
g4
(lp1952
I9
aI16
aI10
aI3
aI1
asg6
I4
ssI2
(dp1953
g4
(lp1954
I9
aI8
aI5
aI16
aI1
asg6
I4
ssI3
(dp1955
g4
(lp1956
I9
aI16
aI4
aI2
aI7
aI1
asg6
I5
ssI4
(dp1957
g4
(lp1958
I9
aI16
aI10
aI11
aI3
aI1
asg6
I5
sssI2
(dp1959
I0
(dp1960
g4
(lp1961
I9
aI16
aI4
aI2
asg6
I3
ssI1
(dp1962
g4
(lp1963
I9
aI16
aI1
aI7
aI2
asg6
I4
ssI2
(dp1964
g4
(lp1965
I9
aI16
aI10
aI12
aI2
asg6
I4
ssI3
(dp1966
g4
(lp1967
I9
aI8
aI5
aI16
aI4
aI2
asg6
I5
ssI4
(dp1968
g4
(lp1969
I9
aI16
aI10
aI17
aI7
aI2
asg6
I5
sssI3
(dp1970
I0
(dp1971
g4
(lp1972
I9
aI16
aI1
aI3
asg6
I3
ssI1
(dp1973
g4
(lp1974
I9
aI16
aI10
aI3
asg6
I3
ssI2
(dp1975
g4
(lp1976
I9
aI16
aI10
aI11
aI3
asg6
I4
ssI3
(dp1977
g4
(lp1978
I9
aI8
aI5
aI16
aI1
aI3
asg6
I5
ssI4
(dp1979
g4
(lp1980
I9
aI15
aI20
aI17
aI10
aI3
asg6
I5
sssI4
(dp1981
I0
(dp1982
g4
(lp1983
I9
aI16
aI4
asg6
I2
ssI1
(dp1984
g4
(lp1985
I9
aI8
aI5
aI16
aI4
asg6
I4
ssI2
(dp1986
g4
(lp1987
I9
aI16
aI1
aI7
aI2
aI4
asg6
I5
ssI3
(dp1988
g4
(lp1989
I9
aI16
aI10
aI12
aI2
aI4
asg6
I5
ssI4
(dp1990
g4
(lp1991
I9
aI15
aI20
aI17
aI10
aI16
aI4
asg6
I6
sssI5
(dp1992
I0
(dp1993
g4
(lp1994
I9
aI8
aI5
asg6
I2
ssI1
(dp1995
g4
(lp1996
I9
aI16
aI5
asg6
I2
ssI2
(dp1997
g4
(lp1998
I9
aI15
aI20
aI17
aI10
aI16
aI5
asg6
I6
ssI3
(dp1999
g4
(lp2000
I9
aI15
aI20
aI17
aI7
aI1
aI16
aI5
asg6
I7
ssI4
(dp2001
g4
(lp2002
I9
aI15
aI20
aI22
aI12
aI10
aI16
aI5
asg6
I7
sssI6
(dp2003
I0
(dp2004
g4
(lp2005
I9
aI16
aI1
aI7
aI6
asg6
I4
ssI1
(dp2006
g4
(lp2007
I9
aI16
aI1
aI7
aI19
aI6
asg6
I5
ssI2
(dp2008
g4
(lp2009
I9
aI16
aI10
aI17
aI7
aI6
asg6
I5
ssI3
(dp2010
g4
(lp2011
I9
aI16
aI4
aI2
aI7
aI6
asg6
I5
ssI4
(dp2012
g4
(lp2013
I9
aI15
aI20
aI17
aI7
aI6
asg6
I5
sssI7
(dp2014
I0
(dp2015
g4
(lp2016
I9
aI16
aI1
aI7
asg6
I3
ssI1
(dp2017
g4
(lp2018
I9
aI16
aI4
aI2
aI7
asg6
I4
ssI2
(dp2019
g4
(lp2020
I9
aI16
aI10
aI17
aI7
asg6
I4
ssI3
(dp2021
g4
(lp2022
I9
aI15
aI20
aI17
aI7
asg6
I4
ssI4
(dp2023
g4
(lp2024
I9
aI16
aI10
aI3
aI1
aI7
asg6
I5
sssI8
(dp2025
I0
(dp2026
g4
(lp2027
I9
aI8
asg6
I1
ssI1
(dp2028
g4
(lp2029
I9
aI16
aI5
aI8
asg6
I3
ssI2
(dp2030
g4
(lp2031
I9
aI15
aI20
aI17
aI10
aI16
aI5
aI8
asg6
I7
ssI3
(dp2032
g4
(lp2033
I9
aI15
aI20
aI17
aI7
aI1
aI16
aI5
aI8
asg6
I8
ssI4
(dp2034
g4
(lp2035
I9
aI15
aI20
aI22
aI12
aI10
aI16
aI5
aI8
asg6
I8
sssI10
(lp2036
(dp2037
g4
(lp2038
I9
aI16
aI10
asg6
I2
sa(dp2039
g4
(lp2040
I9
aI8
aI5
aI16
aI10
asg6
I4
sa(dp2041
g4
(lp2042
I9
aI16
aI1
aI3
aI10
asg6
I4
sa(dp2043
g4
(lp2044
I9
aI15
aI20
aI17
aI10
asg6
I4
sa(dp2045
g4
(lp2046
I9
aI16
aI4
aI2
aI12
aI10
asg6
I5
sasI11
(lp2047
(dp2048
g4
(lp2049
I9
aI16
aI10
aI11
asg6
I3
sa(dp2050
g4
(lp2051
I9
aI16
aI1
aI3
aI11
asg6
I4
sa(dp2052
g4
(lp2053
I9
aI16
aI10
aI3
aI11
asg6
I4
sa(dp2054
g4
(lp2055
I9
aI8
aI5
aI16
aI10
aI11
asg6
I5
sa(dp2056
g4
(lp2057
I9
aI16
aI1
aI3
aI10
aI11
asg6
I5
sasI12
(lp2058
(dp2059
g4
(lp2060
I9
aI16
aI10
aI12
asg6
I3
sa(dp2061
g4
(lp2062
I9
aI15
aI20
aI22
aI12
asg6
I4
sa(dp2063
g4
(lp2064
I9
aI16
aI4
aI2
aI12
asg6
I4
sa(dp2065
g4
(lp2066
I9
aI8
aI5
aI16
aI10
aI12
asg6
I5
sa(dp2067
g4
(lp2068
I9
aI15
aI20
aI17
aI10
aI12
asg6
I5
sasI13
(lp2069
(dp2070
g4
(lp2071
I9
aI16
aI10
aI17
aI13
asg6
I4
sa(dp2072
g4
(lp2073
I9
aI15
aI20
aI17
aI13
asg6
I4
sa(dp2074
g4
(lp2075
I9
aI16
aI4
aI2
aI13
asg6
I4
sa(dp2076
g4
(lp2077
I9
aI16
aI10
aI3
aI14
aI13
asg6
I5
sa(dp2078
g4
(lp2079
I9
aI16
aI1
aI3
aI14
aI13
asg6
I5
sasI14
(lp2080
(dp2081
g4
(lp2082
I9
aI16
aI1
aI3
aI14
asg6
I4
sa(dp2083
g4
(lp2084
I9
aI16
aI10
aI3
aI14
asg6
I4
sa(dp2085
g4
(lp2086
I9
aI15
aI20
aI17
aI13
aI14
asg6
I5
sa(dp2087
g4
(lp2088
I9
aI16
aI4
aI2
aI13
aI14
asg6
I5
sa(dp2089
g4
(lp2090
I9
aI16
aI10
aI11
aI3
aI14
asg6
I5
sasI15
(lp2091
(dp2092
g4
(lp2093
I9
aI15
asg6
I1
sa(dp2094
g4
(lp2095
I9
aI16
aI10
aI17
aI20
aI15
asg6
I5
sa(dp2096
g4
(lp2097
I9
aI16
aI1
aI7
aI17
aI20
aI15
asg6
I6
sa(dp2098
g4
(lp2099
I9
aI16
aI10
aI12
aI22
aI20
aI15
asg6
I6
sa(dp2100
g4
(lp2101
I9
aI8
aI5
aI16
aI10
aI17
aI20
aI15
asg6
I7
sasI16
(lp2102
(dp2103
g4
(lp2104
I9
aI16
asg6
I1
sa(dp2105
g4
(lp2106
I9
aI8
aI5
aI16
asg6
I3
sa(dp2107
g4
(lp2108
I9
aI15
aI20
aI17
aI10
aI16
asg6
I5
sa(dp2109
g4
(lp2110
I9
aI15
aI20
aI22
aI12
aI10
aI16
asg6
I6
sa(dp2111
g4
(lp2112
I9
aI15
aI20
aI17
aI7
aI1
aI16
asg6
I6
sasI17
(lp2113
(dp2114
g4
(lp2115
I9
aI16
aI10
aI17
asg6
I3
sa(dp2116
g4
(lp2117
I9
aI15
aI20
aI17
asg6
I3
sa(dp2118
g4
(lp2119
I9
aI16
aI1
aI7
aI17
asg6
I4
sa(dp2120
g4
(lp2121
I9
aI8
aI5
aI16
aI10
aI17
asg6
I5
sa(dp2122
g4
(lp2123
I9
aI16
aI4
aI2
aI7
aI17
asg6
I5
sasI18
(lp2124
(dp2125
g4
(lp2126
I9
aI16
aI4
aI2
aI18
asg6
I4
sa(dp2127
g4
(lp2128
I9
aI16
aI1
aI3
aI21
aI18
asg6
I5
sa(dp2129
g4
(lp2130
I9
aI16
aI10
aI12
aI2
aI18
asg6
I5
sa(dp2131
g4
(lp2132
I9
aI16
aI1
aI7
aI2
aI18
asg6
I5
sa(dp2133
g4
(lp2134
I9
aI16
aI10
aI3
aI21
aI18
asg6
I5
sasI19
(lp2135
(dp2136
g4
(lp2137
I9
aI16
aI1
aI7
aI19
asg6
I4
sa(dp2138
g4
(lp2139
I9
aI15
aI20
aI17
aI13
aI19
asg6
I5
sa(dp2140
g4
(lp2141
I9
aI16
aI10
aI17
aI13
aI19
asg6
I5
sa(dp2142
g4
(lp2143
I9
aI16
aI1
aI7
aI6
aI19
asg6
I5
sa(dp2144
g4
(lp2145
I9
aI15
aI20
aI17
aI7
aI19
asg6
I5
sasI20
(lp2146
(dp2147
g4
(lp2148
I9
aI15
aI20
asg6
I2
sa(dp2149
g4
(lp2150
I9
aI16
aI10
aI17
aI20
asg6
I4
sa(dp2151
g4
(lp2152
I9
aI16
aI1
aI7
aI17
aI20
asg6
I5
sa(dp2153
g4
(lp2154
I9
aI16
aI10
aI12
aI22
aI20
asg6
I5
sa(dp2155
g4
(lp2156
I9
aI8
aI5
aI16
aI10
aI17
aI20
asg6
I6
sasI21
(lp2157
(dp2158
g4
(lp2159
I9
aI16
aI1
aI3
aI21
asg6
I4
sa(dp2160
g4
(lp2161
I9
aI16
aI10
aI3
aI21
asg6
I4
sa(dp2162
g4
(lp2163
I9
aI16
aI4
aI2
aI18
aI21
asg6
I5
sa(dp2164
g4
(lp2165
I9
aI16
aI10
aI11
aI3
aI21
asg6
I5
sa(dp2166
g4
(lp2167
I9
aI8
aI5
aI16
aI1
aI3
aI21
asg6
I6
sasI22
(lp2168
(dp2169
g4
(lp2170
I9
aI15
aI20
aI22
asg6
I3
sa(dp2171
g4
(lp2172
I9
aI16
aI10
aI12
aI22
asg6
I4
sa(dp2173
g4
(lp2174
I9
aI16
aI4
aI2
aI12
aI22
asg6
I5
sa(dp2175
g4
(lp2176
I9
aI16
aI10
aI17
aI20
aI22
asg6
I5
sa(dp2177
g4
(lp2178
I9
aI15
aI20
aI17
aI10
aI12
aI22
asg6
I6
sasI23
(lp2179
(dp2180
g4
(lp2181
I9
aI16
aI10
aI17
aI23
asg6
I4
sa(dp2182
g4
(lp2183
I9
aI15
aI20
aI17
aI23
asg6
I4
sa(dp2184
g4
(lp2185
I9
aI16
aI4
aI2
aI23
asg6
I4
sa(dp2186
g4
(lp2187
I9
aI16
aI10
aI12
aI2
aI23
asg6
I5
sa(dp2188
g4
(lp2189
I9
aI16
aI1
aI7
aI17
aI23
asg6
I5
sassI10
(dp2190
I1
(dp2191
I0
(dp2192
g4
(lp2193
I10
aI16
aI1
asg6
I2
ssI1
(dp2194
g4
(lp2195
I10
aI3
aI1
asg6
I2
ssI2
(dp2196
g4
(lp2197
I10
aI17
aI7
aI1
asg6
I3
ssI3
(dp2198
g4
(lp2199
I10
aI11
aI3
aI1
asg6
I3
ssI4
(dp2200
g4
(lp2201
I10
aI12
aI2
aI7
aI1
asg6
I4
sssI2
(dp2202
I0
(dp2203
g4
(lp2204
I10
aI12
aI2
asg6
I2
ssI1
(dp2205
g4
(lp2206
I10
aI16
aI4
aI2
asg6
I3
ssI2
(dp2207
g4
(lp2208
I10
aI17
aI7
aI2
asg6
I3
ssI3
(dp2209
g4
(lp2210
I10
aI17
aI13
aI2
asg6
I3
ssI4
(dp2211
g4
(lp2212
I10
aI17
aI23
aI2
asg6
I3
sssI3
(dp2213
I0
(dp2214
g4
(lp2215
I10
aI3
asg6
I1
ssI1
(dp2216
g4
(lp2217
I10
aI11
aI3
asg6
I2
ssI2
(dp2218
g4
(lp2219
I10
aI16
aI1
aI3
asg6
I3
ssI3
(dp2220
g4
(lp2221
I10
aI17
aI13
aI14
aI3
asg6
I4
ssI4
(dp2222
g4
(lp2223
I10
aI17
aI7
aI1
aI3
asg6
I4
sssI4
(dp2224
I0
(dp2225
g4
(lp2226
I10
aI16
aI4
asg6
I2
ssI1
(dp2227
g4
(lp2228
I10
aI12
aI2
aI4
asg6
I3
ssI2
(dp2229
g4
(lp2230
I10
aI3
aI1
aI16
aI4
asg6
I4
ssI3
(dp2231
g4
(lp2232
I10
aI17
aI7
aI2
aI4
asg6
I4
ssI4
(dp2233
g4
(lp2234
I10
aI17
aI13
aI2
aI4
asg6
I4
sssI5
(dp2235
I0
(dp2236
g4
(lp2237
I10
aI16
aI5
asg6
I2
ssI1
(dp2238
g4
(lp2239
I10
aI16
aI9
aI8
aI5
asg6
I4
ssI2
(dp2240
g4
(lp2241
I10
aI3
aI1
aI16
aI5
asg6
I4
ssI3
(dp2242
g4
(lp2243
I10
aI12
aI2
aI4
aI16
aI5
asg6
I5
ssI4
(dp2244
g4
(lp2245
I10
aI17
aI7
aI1
aI16
aI5
asg6
I5
sssI6
(dp2246
I0
(dp2247
g4
(lp2248
I10
aI17
aI7
aI6
asg6
I3
ssI1
(dp2249
g4
(lp2250
I10
aI17
aI13
aI19
aI6
asg6
I4
ssI2
(dp2251
g4
(lp2252
I10
aI16
aI1
aI7
aI6
asg6
I4
ssI3
(dp2253
g4
(lp2254
I10
aI17
aI7
aI19
aI6
asg6
I4
ssI4
(dp2255
g4
(lp2256
I10
aI12
aI2
aI7
aI6
asg6
I4
sssI7
(dp2257
I0
(dp2258
g4
(lp2259
I10
aI17
aI7
asg6
I2
ssI1
(dp2260
g4
(lp2261
I10
aI16
aI1
aI7
asg6
I3
ssI2
(dp2262
g4
(lp2263
I10
aI12
aI2
aI7
asg6
I3
ssI3
(dp2264
g4
(lp2265
I10
aI3
aI1
aI7
asg6
I3
ssI4
(dp2266
g4
(lp2267
I10
aI17
aI13
aI19
aI7
asg6
I4
sssI8
(dp2268
I0
(dp2269
g4
(lp2270
I10
aI16
aI9
aI8
asg6
I3
ssI1
(dp2271
g4
(lp2272
I10
aI16
aI5
aI8
asg6
I3
ssI2
(dp2273
g4
(lp2274
I10
aI17
aI20
aI15
aI9
aI8
asg6
I5
ssI3
(dp2275
g4
(lp2276
I10
aI3
aI1
aI16
aI9
aI8
asg6
I5
ssI4
(dp2277
g4
(lp2278
I10
aI3
aI1
aI16
aI5
aI8
asg6
I5
sssI9
(dp2279
I0
(dp2280
g4
(lp2281
I10
aI16
aI9
asg6
I2
ssI1
(dp2282
g4
(lp2283
I10
aI16
aI5
aI8
aI9
asg6
I4
ssI2
(dp2284
g4
(lp2285
I10
aI3
aI1
aI16
aI9
asg6
I4
ssI3
(dp2286
g4
(lp2287
I10
aI17
aI20
aI15
aI9
asg6
I4
ssI4
(dp2288
g4
(lp2289
I10
aI12
aI2
aI4
aI16
aI9
asg6
I5
sssI11
(lp2290
(dp2291
g4
(lp2292
I10
aI11
asg6
I1
sa(dp2293
g4
(lp2294
I10
aI3
aI11
asg6
I2
sa(dp2295
g4
(lp2296
I10
aI16
aI1
aI3
aI11
asg6
I4
sa(dp2297
g4
(lp2298
I10
aI17
aI7
aI1
aI3
aI11
asg6
I5
sa(dp2299
g4
(lp2300
I10
aI17
aI13
aI14
aI3
aI11
asg6
I5
sasI12
(lp2301
(dp2302
g4
(lp2303
I10
aI12
asg6
I1
sa(dp2304
g4
(lp2305
I10
aI16
aI4
aI2
aI12
asg6
I4
sa(dp2306
g4
(lp2307
I10
aI17
aI23
aI2
aI12
asg6
I4
sa(dp2308
g4
(lp2309
I10
aI17
aI7
aI2
aI12
asg6
I4
sa(dp2310
g4
(lp2311
I10
aI17
aI20
aI22
aI12
asg6
I4
sasI13
(lp2312
(dp2313
g4
(lp2314
I10
aI17
aI13
asg6
I2
sa(dp2315
g4
(lp2316
I10
aI3
aI14
aI13
asg6
I3
sa(dp2317
g4
(lp2318
I10
aI12
aI2
aI13
asg6
I3
sa(dp2319
g4
(lp2320
I10
aI17
aI23
aI2
aI13
asg6
I4
sa(dp2321
g4
(lp2322
I10
aI16
aI4
aI2
aI13
asg6
I4
sasI14
(lp2323
(dp2324
g4
(lp2325
I10
aI3
aI14
asg6
I2
sa(dp2326
g4
(lp2327
I10
aI11
aI3
aI14
asg6
I3
sa(dp2328
g4
(lp2329
I10
aI17
aI13
aI14
asg6
I3
sa(dp2330
g4
(lp2331
I10
aI16
aI1
aI3
aI14
asg6
I4
sa(dp2332
g4
(lp2333
I10
aI12
aI2
aI13
aI14
asg6
I4
sasI15
(lp2334
(dp2335
g4
(lp2336
I10
aI16
aI9
aI15
asg6
I3
sa(dp2337
g4
(lp2338
I10
aI17
aI20
aI15
asg6
I3
sa(dp2339
g4
(lp2340
I10
aI12
aI22
aI20
aI15
asg6
I4
sa(dp2341
g4
(lp2342
I10
aI16
aI5
aI8
aI9
aI15
asg6
I5
sa(dp2343
g4
(lp2344
I10
aI3
aI1
aI16
aI9
aI15
asg6
I5
sasI16
(lp2345
(dp2346
g4
(lp2347
I10
aI16
asg6
I1
sa(dp2348
g4
(lp2349
I10
aI3
aI1
aI16
asg6
I3
sa(dp2350
g4
(lp2351
I10
aI11
aI3
aI1
aI16
asg6
I4
sa(dp2352
g4
(lp2353
I10
aI17
aI7
aI1
aI16
asg6
I4
sa(dp2354
g4
(lp2355
I10
aI12
aI2
aI4
aI16
asg6
I4
sasI17
(lp2356
(dp2357
g4
(lp2358
I10
aI17
asg6
I1
sa(dp2359
g4
(lp2360
I10
aI12
aI2
aI23
aI17
asg6
I4
sa(dp2361
g4
(lp2362
I10
aI3
aI14
aI13
aI17
asg6
I4
sa(dp2363
g4
(lp2364
I10
aI12
aI22
aI20
aI17
asg6
I4
sa(dp2365
g4
(lp2366
I10
aI12
aI2
aI13
aI17
asg6
I4
sasI18
(lp2367
(dp2368
g4
(lp2369
I10
aI12
aI2
aI18
asg6
I3
sa(dp2370
g4
(lp2371
I10
aI3
aI21
aI18
asg6
I3
sa(dp2372
g4
(lp2373
I10
aI11
aI3
aI21
aI18
asg6
I4
sa(dp2374
g4
(lp2375
I10
aI16
aI4
aI2
aI18
asg6
I4
sa(dp2376
g4
(lp2377
I10
aI17
aI7
aI2
aI18
asg6
I4
sasI19
(lp2378
(dp2379
g4
(lp2380
I10
aI17
aI13
aI19
asg6
I3
sa(dp2381
g4
(lp2382
I10
aI17
aI7
aI19
asg6
I3
sa(dp2383
g4
(lp2384
I10
aI16
aI1
aI7
aI19
asg6
I4
sa(dp2385
g4
(lp2386
I10
aI17
aI7
aI6
aI19
asg6
I4
sa(dp2387
g4
(lp2388
I10
aI12
aI2
aI13
aI19
asg6
I4
sasI20
(lp2389
(dp2390
g4
(lp2391
I10
aI17
aI20
asg6
I2
sa(dp2392
g4
(lp2393
I10
aI12
aI22
aI20
asg6
I3
sa(dp2394
g4
(lp2395
I10
aI16
aI9
aI15
aI20
asg6
I4
sa(dp2396
g4
(lp2397
I10
aI12
aI2
aI23
aI17
aI20
asg6
I5
sa(dp2398
g4
(lp2399
I10
aI3
aI14
aI13
aI17
aI20
asg6
I5
sasI21
(lp2400
(dp2401
g4
(lp2402
I10
aI3
aI21
asg6
I2
sa(dp2403
g4
(lp2404
I10
aI11
aI3
aI21
asg6
I3
sa(dp2405
g4
(lp2406
I10
aI16
aI1
aI3
aI21
asg6
I4
sa(dp2407
g4
(lp2408
I10
aI12
aI2
aI18
aI21
asg6
I4
sa(dp2409
g4
(lp2410
I10
aI16
aI4
aI2
aI18
aI21
asg6
I5
sasI22
(lp2411
(dp2412
g4
(lp2413
I10
aI12
aI22
asg6
I2
sa(dp2414
g4
(lp2415
I10
aI17
aI20
aI22
asg6
I3
sa(dp2416
g4
(lp2417
I10
aI16
aI9
aI15
aI20
aI22
asg6
I5
sa(dp2418
g4
(lp2419
I10
aI17
aI7
aI2
aI12
aI22
asg6
I5
sa(dp2420
g4
(lp2421
I10
aI16
aI4
aI2
aI12
aI22
asg6
I5
sasI23
(lp2422
(dp2423
g4
(lp2424
I10
aI17
aI23
asg6
I2
sa(dp2425
g4
(lp2426
I10
aI12
aI2
aI23
asg6
I3
sa(dp2427
g4
(lp2428
I10
aI17
aI7
aI2
aI23
asg6
I4
sa(dp2429
g4
(lp2430
I10
aI16
aI4
aI2
aI23
asg6
I4
sa(dp2431
g4
(lp2432
I10
aI17
aI13
aI2
aI23
asg6
I4
sassI11
(dp2433
I1
(dp2434
I0
(dp2435
g4
(lp2436
I11
aI3
aI1
asg6
I2
ssI1
(dp2437
g4
(lp2438
I11
aI10
aI16
aI1
asg6
I3
ssI2
(dp2439
g4
(lp2440
I11
aI10
aI3
aI1
asg6
I3
ssI3
(dp2441
g4
(lp2442
I11
aI10
aI17
aI7
aI1
asg6
I4
ssI4
(dp2443
g4
(lp2444
I11
aI3
aI10
aI16
aI1
asg6
I4
sssI2
(dp2445
I0
(dp2446
g4
(lp2447
I11
aI10
aI12
aI2
asg6
I3
ssI1
(dp2448
g4
(lp2449
I11
aI10
aI16
aI4
aI2
asg6
I4
ssI2
(dp2450
g4
(lp2451
I11
aI3
aI10
aI12
aI2
asg6
I4
ssI3
(dp2452
g4
(lp2453
I11
aI3
aI1
aI7
aI2
asg6
I4
ssI4
(dp2454
g4
(lp2455
I11
aI10
aI17
aI13
aI2
asg6
I4
sssI3
(dp2456
I0
(dp2457
g4
(lp2458
I11
aI3
asg6
I1
ssI1
(dp2459
g4
(lp2460
I11
aI10
aI3
asg6
I2
ssI2
(dp2461
g4
(lp2462
I11
aI10
aI16
aI1
aI3
asg6
I4
ssI3
(dp2463
g4
(lp2464
I11
aI10
aI17
aI13
aI14
aI3
asg6
I5
ssI4
(dp2465
g4
(lp2466
I11
aI10
aI17
aI7
aI1
aI3
asg6
I5
sssI4
(dp2467
I0
(dp2468
g4
(lp2469
I11
aI10
aI16
aI4
asg6
I3
ssI1
(dp2470
g4
(lp2471
I11
aI10
aI12
aI2
aI4
asg6
I4
ssI2
(dp2472
g4
(lp2473
I11
aI3
aI1
aI16
aI4
asg6
I4
ssI3
(dp2474
g4
(lp2475
I11
aI3
aI10
aI16
aI4
asg6
I4
ssI4
(dp2476
g4
(lp2477
I11
aI3
aI1
aI7
aI2
aI4
asg6
I5
sssI5
(dp2478
I0
(dp2479
g4
(lp2480
I11
aI10
aI16
aI5
asg6
I3
ssI1
(dp2481
g4
(lp2482
I11
aI3
aI1
aI16
aI5
asg6
I4
ssI2
(dp2483
g4
(lp2484
I11
aI3
aI10
aI16
aI5
asg6
I4
ssI3
(dp2485
g4
(lp2486
I11
aI10
aI16
aI9
aI8
aI5
asg6
I5
ssI4
(dp2487
g4
(lp2488
I11
aI10
aI3
aI1
aI16
aI5
asg6
I5
sssI6
(dp2489
I0
(dp2490
g4
(lp2491
I11
aI10
aI17
aI7
aI6
asg6
I4
ssI1
(dp2492
g4
(lp2493
I11
aI3
aI1
aI7
aI6
asg6
I4
ssI2
(dp2494
g4
(lp2495
I11
aI10
aI17
aI13
aI19
aI6
asg6
I5
ssI3
(dp2496
g4
(lp2497
I11
aI3
aI10
aI17
aI7
aI6
asg6
I5
ssI4
(dp2498
g4
(lp2499
I11
aI10
aI12
aI2
aI7
aI6
asg6
I5
sssI7
(dp2500
I0
(dp2501
g4
(lp2502
I11
aI10
aI17
aI7
asg6
I3
ssI1
(dp2503
g4
(lp2504
I11
aI3
aI1
aI7
asg6
I3
ssI2
(dp2505
g4
(lp2506
I11
aI3
aI10
aI17
aI7
asg6
I4
ssI3
(dp2507
g4
(lp2508
I11
aI10
aI12
aI2
aI7
asg6
I4
ssI4
(dp2509
g4
(lp2510
I11
aI10
aI16
aI1
aI7
asg6
I4
sssI8
(dp2511
I0
(dp2512
g4
(lp2513
I11
aI10
aI16
aI9
aI8
asg6
I4
ssI1
(dp2514
g4
(lp2515
I11
aI10
aI16
aI5
aI8
asg6
I4
ssI2
(dp2516
g4
(lp2517
I11
aI3
aI1
aI16
aI9
aI8
asg6
I5
ssI3
(dp2518
g4
(lp2519
I11
aI3
aI10
aI16
aI9
aI8
asg6
I5
ssI4
(dp2520
g4
(lp2521
I11
aI3
aI1
aI16
aI5
aI8
asg6
I5
sssI9
(dp2522
I0
(dp2523
g4
(lp2524
I11
aI10
aI16
aI9
asg6
I3
ssI1
(dp2525
g4
(lp2526
I11
aI3
aI1
aI16
aI9
asg6
I4
ssI2
(dp2527
g4
(lp2528
I11
aI3
aI10
aI16
aI9
asg6
I4
ssI3
(dp2529
g4
(lp2530
I11
aI10
aI16
aI5
aI8
aI9
asg6
I5
ssI4
(dp2531
g4
(lp2532
I11
aI10
aI3
aI1
aI16
aI9
asg6
I5
sssI10
(dp2533
I0
(dp2534
g4
(lp2535
I11
aI10
asg6
I1
ssI1
(dp2536
g4
(lp2537
I11
aI3
aI10
asg6
I2
ssI2
(dp2538
g4
(lp2539
I11
aI3
aI1
aI16
aI10
asg6
I4
ssI3
(dp2540
g4
(lp2541
I11
aI3
aI1
aI7
aI17
aI10
asg6
I5
ssI4
(dp2542
g4
(lp2543
I11
aI3
aI14
aI13
aI17
aI10
asg6
I5
sssI12
(lp2544
(dp2545
g4
(lp2546
I11
aI10
aI12
asg6
I2
sa(dp2547
g4
(lp2548
I11
aI3
aI10
aI12
asg6
I3
sa(dp2549
g4
(lp2550
I11
aI10
aI16
aI4
aI2
aI12
asg6
I5
sa(dp2551
g4
(lp2552
I11
aI3
aI1
aI7
aI2
aI12
asg6
I5
sa(dp2553
g4
(lp2554
I11
aI10
aI17
aI7
aI2
aI12
asg6
I5
sasI13
(lp2555
(dp2556
g4
(lp2557
I11
aI10
aI17
aI13
asg6
I3
sa(dp2558
g4
(lp2559
I11
aI3
aI14
aI13
asg6
I3
sa(dp2560
g4
(lp2561
I11
aI10
aI3
aI14
aI13
asg6
I4
sa(dp2562
g4
(lp2563
I11
aI3
aI10
aI17
aI13
asg6
I4
sa(dp2564
g4
(lp2565
I11
aI10
aI12
aI2
aI13
asg6
I4
sasI14
(lp2566
(dp2567
g4
(lp2568
I11
aI3
aI14
asg6
I2
sa(dp2569
g4
(lp2570
I11
aI10
aI3
aI14
asg6
I3
sa(dp2571
g4
(lp2572
I11
aI10
aI17
aI13
aI14
asg6
I4
sa(dp2573
g4
(lp2574
I11
aI3
aI10
aI17
aI13
aI14
asg6
I5
sa(dp2575
g4
(lp2576
I11
aI10
aI16
aI1
aI3
aI14
asg6
I5
sasI15
(lp2577
(dp2578
g4
(lp2579
I11
aI10
aI16
aI9
aI15
asg6
I4
sa(dp2580
g4
(lp2581
I11
aI10
aI17
aI20
aI15
asg6
I4
sa(dp2582
g4
(lp2583
I11
aI3
aI1
aI16
aI9
aI15
asg6
I5
sa(dp2584
g4
(lp2585
I11
aI10
aI12
aI22
aI20
aI15
asg6
I5
sa(dp2586
g4
(lp2587
I11
aI3
aI10
aI16
aI9
aI15
asg6
I5
sasI16
(lp2588
(dp2589
g4
(lp2590
I11
aI10
aI16
asg6
I2
sa(dp2591
g4
(lp2592
I11
aI3
aI1
aI16
asg6
I3
sa(dp2593
g4
(lp2594
I11
aI3
aI10
aI16
asg6
I3
sa(dp2595
g4
(lp2596
I11
aI10
aI3
aI1
aI16
asg6
I4
sa(dp2597
g4
(lp2598
I11
aI10
aI17
aI7
aI1
aI16
asg6
I5
sasI17
(lp2599
(dp2600
g4
(lp2601
I11
aI10
aI17
asg6
I2
sa(dp2602
g4
(lp2603
I11
aI3
aI10
aI17
asg6
I3
sa(dp2604
g4
(lp2605
I11
aI3
aI1
aI7
aI17
asg6
I4
sa(dp2606
g4
(lp2607
I11
aI3
aI14
aI13
aI17
asg6
I4
sa(dp2608
g4
(lp2609
I11
aI10
aI12
aI2
aI23
aI17
asg6
I5
sasI18
(lp2610
(dp2611
g4
(lp2612
I11
aI3
aI21
aI18
asg6
I3
sa(dp2613
g4
(lp2614
I11
aI10
aI12
aI2
aI18
asg6
I4
sa(dp2615
g4
(lp2616
I11
aI10
aI3
aI21
aI18
asg6
I4
sa(dp2617
g4
(lp2618
I11
aI3
aI1
aI7
aI2
aI18
asg6
I5
sa(dp2619
g4
(lp2620
I11
aI10
aI16
aI4
aI2
aI18
asg6
I5
sasI19
(lp2621
(dp2622
g4
(lp2623
I11
aI10
aI17
aI13
aI19
asg6
I4
sa(dp2624
g4
(lp2625
I11
aI3
aI14
aI13
aI19
asg6
I4
sa(dp2626
g4
(lp2627
I11
aI10
aI17
aI7
aI19
asg6
I4
sa(dp2628
g4
(lp2629
I11
aI3
aI1
aI7
aI19
asg6
I4
sa(dp2630
g4
(lp2631
I11
aI10
aI12
aI2
aI13
aI19
asg6
I5
sasI20
(lp2632
(dp2633
g4
(lp2634
I11
aI10
aI17
aI20
asg6
I3
sa(dp2635
g4
(lp2636
I11
aI3
aI10
aI17
aI20
asg6
I4
sa(dp2637
g4
(lp2638
I11
aI10
aI12
aI22
aI20
asg6
I4
sa(dp2639
g4
(lp2640
I11
aI3
aI14
aI13
aI17
aI20
asg6
I5
sa(dp2641
g4
(lp2642
I11
aI3
aI10
aI12
aI22
aI20
asg6
I5
sasI21
(lp2643
(dp2644
g4
(lp2645
I11
aI3
aI21
asg6
I2
sa(dp2646
g4
(lp2647
I11
aI10
aI3
aI21
asg6
I3
sa(dp2648
g4
(lp2649
I11
aI10
aI16
aI1
aI3
aI21
asg6
I5
sa(dp2650
g4
(lp2651
I11
aI10
aI12
aI2
aI18
aI21
asg6
I5
sa(dp2652
g4
(lp2653
I11
aI3
aI1
aI7
aI2
aI18
aI21
asg6
I6
sasI22
(lp2654
(dp2655
g4
(lp2656
I11
aI10
aI12
aI22
asg6
I3
sa(dp2657
g4
(lp2658
I11
aI3
aI10
aI12
aI22
asg6
I4
sa(dp2659
g4
(lp2660
I11
aI10
aI17
aI20
aI22
asg6
I4
sa(dp2661
g4
(lp2662
I11
aI3
aI10
aI17
aI20
aI22
asg6
I5
sa(dp2663
g4
(lp2664
I11
aI3
aI1
aI16
aI10
aI12
aI22
asg6
I6
sasI23
(lp2665
(dp2666
g4
(lp2667
I11
aI10
aI17
aI23
asg6
I3
sa(dp2668
g4
(lp2669
I11
aI3
aI10
aI17
aI23
asg6
I4
sa(dp2670
g4
(lp2671
I11
aI10
aI12
aI2
aI23
asg6
I4
sa(dp2672
g4
(lp2673
I11
aI10
aI17
aI7
aI2
aI23
asg6
I5
sa(dp2674
g4
(lp2675
I11
aI3
aI1
aI7
aI17
aI23
asg6
I5
sassI12
(dp2676
I1
(dp2677
I0
(dp2678
g4
(lp2679
I12
aI10
aI16
aI1
asg6
I3
ssI1
(dp2680
g4
(lp2681
I12
aI10
aI3
aI1
asg6
I3
ssI2
(dp2682
g4
(lp2683
I12
aI2
aI7
aI1
asg6
I3
ssI3
(dp2684
g4
(lp2685
I12
aI2
aI4
aI16
aI1
asg6
I4
ssI4
(dp2686
g4
(lp2687
I12
aI10
aI11
aI3
aI1
asg6
I4
sssI2
(dp2688
I0
(dp2689
g4
(lp2690
I12
aI2
asg6
I1
ssI1
(dp2691
g4
(lp2692
I12
aI10
aI16
aI4
aI2
asg6
I4
ssI2
(dp2693
g4
(lp2694
I12
aI10
aI17
aI7
aI2
asg6
I4
ssI3
(dp2695
g4
(lp2696
I12
aI10
aI17
aI13
aI2
asg6
I4
ssI4
(dp2697
g4
(lp2698
I12
aI10
aI17
aI23
aI2
asg6
I4
sssI3
(dp2699
I0
(dp2700
g4
(lp2701
I12
aI10
aI3
asg6
I2
ssI1
(dp2702
g4
(lp2703
I12
aI10
aI11
aI3
asg6
I3
ssI2
(dp2704
g4
(lp2705
I12
aI2
aI7
aI1
aI3
asg6
I4
ssI3
(dp2706
g4
(lp2707
I12
aI2
aI18
aI21
aI3
asg6
I4
ssI4
(dp2708
g4
(lp2709
I12
aI10
aI16
aI1
aI3
asg6
I4
sssI4
(dp2710
I0
(dp2711
g4
(lp2712
I12
aI2
aI4
asg6
I2
ssI1
(dp2713
g4
(lp2714
I12
aI10
aI16
aI4
asg6
I3
ssI2
(dp2715
g4
(lp2716
I12
aI10
aI17
aI7
aI2
aI4
asg6
I5
ssI3
(dp2717
g4
(lp2718
I12
aI2
aI7
aI1
aI16
aI4
asg6
I5
ssI4
(dp2719
g4
(lp2720
I12
aI10
aI17
aI13
aI2
aI4
asg6
I5
sssI5
(dp2721
I0
(dp2722
g4
(lp2723
I12
aI10
aI16
aI5
asg6
I3
ssI1
(dp2724
g4
(lp2725
I12
aI2
aI4
aI16
aI5
asg6
I4
ssI2
(dp2726
g4
(lp2727
I12
aI10
aI16
aI9
aI8
aI5
asg6
I5
ssI3
(dp2728
g4
(lp2729
I12
aI2
aI7
aI1
aI16
aI5
asg6
I5
ssI4
(dp2730
g4
(lp2731
I12
aI10
aI3
aI1
aI16
aI5
asg6
I5
sssI6
(dp2732
I0
(dp2733
g4
(lp2734
I12
aI2
aI7
aI6
asg6
I3
ssI1
(dp2735
g4
(lp2736
I12
aI2
aI13
aI19
aI6
asg6
I4
ssI2
(dp2737
g4
(lp2738
I12
aI10
aI17
aI7
aI6
asg6
I4
ssI3
(dp2739
g4
(lp2740
I12
aI2
aI7
aI19
aI6
asg6
I4
ssI4
(dp2741
g4
(lp2742
I12
aI10
aI17
aI13
aI19
aI6
asg6
I5
sssI7
(dp2743
I0
(dp2744
g4
(lp2745
I12
aI2
aI7
asg6
I2
ssI1
(dp2746
g4
(lp2747
I12
aI10
aI17
aI7
asg6
I3
ssI2
(dp2748
g4
(lp2749
I12
aI10
aI16
aI1
aI7
asg6
I4
ssI3
(dp2750
g4
(lp2751
I12
aI2
aI23
aI17
aI7
asg6
I4
ssI4
(dp2752
g4
(lp2753
I12
aI2
aI13
aI19
aI7
asg6
I4
sssI8
(dp2754
I0
(dp2755
g4
(lp2756
I12
aI10
aI16
aI9
aI8
asg6
I4
ssI1
(dp2757
g4
(lp2758
I12
aI10
aI16
aI5
aI8
asg6
I4
ssI2
(dp2759
g4
(lp2760
I12
aI22
aI20
aI15
aI9
aI8
asg6
I5
ssI3
(dp2761
g4
(lp2762
I12
aI2
aI4
aI16
aI9
aI8
asg6
I5
ssI4
(dp2763
g4
(lp2764
I12
aI2
aI4
aI16
aI5
aI8
asg6
I5
sssI9
(dp2765
I0
(dp2766
g4
(lp2767
I12
aI10
aI16
aI9
asg6
I3
ssI1
(dp2768
g4
(lp2769
I12
aI22
aI20
aI15
aI9
asg6
I4
ssI2
(dp2770
g4
(lp2771
I12
aI2
aI4
aI16
aI9
asg6
I4
ssI3
(dp2772
g4
(lp2773
I12
aI10
aI16
aI5
aI8
aI9
asg6
I5
ssI4
(dp2774
g4
(lp2775
I12
aI10
aI17
aI20
aI15
aI9
asg6
I5
sssI10
(dp2776
I0
(dp2777
g4
(lp2778
I12
aI10
asg6
I1
ssI1
(dp2779
g4
(lp2780
I12
aI2
aI4
aI16
aI10
asg6
I4
ssI2
(dp2781
g4
(lp2782
I12
aI2
aI23
aI17
aI10
asg6
I4
ssI3
(dp2783
g4
(lp2784
I12
aI2
aI7
aI17
aI10
asg6
I4
ssI4
(dp2785
g4
(lp2786
I12
aI22
aI20
aI17
aI10
asg6
I4
sssI11
(dp2787
I0
(dp2788
g4
(lp2789
I12
aI10
aI11
asg6
I2
ssI1
(dp2790
g4
(lp2791
I12
aI10
aI3
aI11
asg6
I3
ssI2
(dp2792
g4
(lp2793
I12
aI2
aI4
aI16
aI10
aI11
asg6
I5
ssI3
(dp2794
g4
(lp2795
I12
aI2
aI7
aI1
aI3
aI11
asg6
I5
ssI4
(dp2796
g4
(lp2797
I12
aI2
aI7
aI17
aI10
aI11
asg6
I5
sssI13
(lp2798
(dp2799
g4
(lp2800
I12
aI2
aI13
asg6
I2
sa(dp2801
g4
(lp2802
I12
aI10
aI17
aI13
asg6
I3
sa(dp2803
g4
(lp2804
I12
aI2
aI23
aI17
aI13
asg6
I4
sa(dp2805
g4
(lp2806
I12
aI22
aI20
aI17
aI13
asg6
I4
sa(dp2807
g4
(lp2808
I12
aI10
aI3
aI14
aI13
asg6
I4
sasI14
(lp2809
(dp2810
g4
(lp2811
I12
aI10
aI3
aI14
asg6
I3
sa(dp2812
g4
(lp2813
I12
aI2
aI13
aI14
asg6
I3
sa(dp2814
g4
(lp2815
I12
aI10
aI11
aI3
aI14
asg6
I4
sa(dp2816
g4
(lp2817
I12
aI10
aI17
aI13
aI14
asg6
I4
sa(dp2818
g4
(lp2819
I12
aI22
aI20
aI17
aI13
aI14
asg6
I5
sasI15
(lp2820
(dp2821
g4
(lp2822
I12
aI22
aI20
aI15
asg6
I3
sa(dp2823
g4
(lp2824
I12
aI10
aI16
aI9
aI15
asg6
I4
sa(dp2825
g4
(lp2826
I12
aI10
aI17
aI20
aI15
asg6
I4
sa(dp2827
g4
(lp2828
I12
aI2
aI4
aI16
aI9
aI15
asg6
I5
sa(dp2829
g4
(lp2830
I12
aI2
aI7
aI17
aI20
aI15
asg6
I5
sasI16
(lp2831
(dp2832
g4
(lp2833
I12
aI10
aI16
asg6
I2
sa(dp2834
g4
(lp2835
I12
aI2
aI4
aI16
asg6
I3
sa(dp2836
g4
(lp2837
I12
aI10
aI3
aI1
aI16
asg6
I4
sa(dp2838
g4
(lp2839
I12
aI2
aI7
aI1
aI16
asg6
I4
sa(dp2840
g4
(lp2841
I12
aI22
aI20
aI17
aI10
aI16
asg6
I5
sasI17
(lp2842
(dp2843
g4
(lp2844
I12
aI10
aI17
asg6
I2
sa(dp2845
g4
(lp2846
I12
aI2
aI7
aI17
asg6
I3
sa(dp2847
g4
(lp2848
I12
aI22
aI20
aI17
asg6
I3
sa(dp2849
g4
(lp2850
I12
aI2
aI23
aI17
asg6
I3
sa(dp2851
g4
(lp2852
I12
aI2
aI13
aI17
asg6
I3
sasI18
(lp2853
(dp2854
g4
(lp2855
I12
aI2
aI18
asg6
I2
sa(dp2856
g4
(lp2857
I12
aI10
aI3
aI21
aI18
asg6
I4
sa(dp2858
g4
(lp2859
I12
aI10
aI11
aI3
aI21
aI18
asg6
I5
sa(dp2860
g4
(lp2861
I12
aI10
aI16
aI4
aI2
aI18
asg6
I5
sa(dp2862
g4
(lp2863
I12
aI10
aI17
aI7
aI2
aI18
asg6
I5
sasI19
(lp2864
(dp2865
g4
(lp2866
I12
aI2
aI7
aI19
asg6
I3
sa(dp2867
g4
(lp2868
I12
aI2
aI13
aI19
asg6
I3
sa(dp2869
g4
(lp2870
I12
aI10
aI17
aI13
aI19
asg6
I4
sa(dp2871
g4
(lp2872
I12
aI2
aI7
aI6
aI19
asg6
I4
sa(dp2873
g4
(lp2874
I12
aI10
aI17
aI7
aI19
asg6
I4
sasI20
(lp2875
(dp2876
g4
(lp2877
I12
aI22
aI20
asg6
I2
sa(dp2878
g4
(lp2879
I12
aI10
aI17
aI20
asg6
I3
sa(dp2880
g4
(lp2881
I12
aI2
aI23
aI17
aI20
asg6
I4
sa(dp2882
g4
(lp2883
I12
aI2
aI13
aI17
aI20
asg6
I4
sa(dp2884
g4
(lp2885
I12
aI2
aI7
aI17
aI20
asg6
I4
sasI21
(lp2886
(dp2887
g4
(lp2888
I12
aI2
aI18
aI21
asg6
I3
sa(dp2889
g4
(lp2890
I12
aI10
aI3
aI21
asg6
I3
sa(dp2891
g4
(lp2892
I12
aI10
aI11
aI3
aI21
asg6
I4
sa(dp2893
g4
(lp2894
I12
aI2
aI7
aI1
aI3
aI21
asg6
I5
sa(dp2895
g4
(lp2896
I12
aI10
aI16
aI1
aI3
aI21
asg6
I5
sasI22
(lp2897
(dp2898
g4
(lp2899
I12
aI22
asg6
I1
sa(dp2900
g4
(lp2901
I12
aI10
aI17
aI20
aI22
asg6
I4
sa(dp2902
g4
(lp2903
I12
aI2
aI23
aI17
aI20
aI22
asg6
I5
sa(dp2904
g4
(lp2905
I12
aI2
aI13
aI17
aI20
aI22
asg6
I5
sa(dp2906
g4
(lp2907
I12
aI2
aI7
aI17
aI20
aI22
asg6
I5
sasI23
(lp2908
(dp2909
g4
(lp2910
I12
aI2
aI23
asg6
I2
sa(dp2911
g4
(lp2912
I12
aI10
aI17
aI23
asg6
I3
sa(dp2913
g4
(lp2914
I12
aI2
aI13
aI17
aI23
asg6
I4
sa(dp2915
g4
(lp2916
I12
aI22
aI20
aI17
aI23
asg6
I4
sa(dp2917
g4
(lp2918
I12
aI2
aI7
aI17
aI23
asg6
I4
sassI13
(dp2919
I1
(dp2920
I0
(dp2921
g4
(lp2922
I13
aI14
aI3
aI1
asg6
I3
ssI1
(dp2923
g4
(lp2924
I13
aI2
aI7
aI1
asg6
I3
ssI2
(dp2925
g4
(lp2926
I13
aI17
aI7
aI1
asg6
I3
ssI3
(dp2927
g4
(lp2928
I13
aI19
aI7
aI1
asg6
I3
ssI4
(dp2929
g4
(lp2930
I13
aI17
aI10
aI3
aI1
asg6
I4
sssI2
(dp2931
I0
(dp2932
g4
(lp2933
I13
aI2
asg6
I1
ssI1
(dp2934
g4
(lp2935
I13
aI17
aI23
aI2
asg6
I3
ssI2
(dp2936
g4
(lp2937
I13
aI17
aI7
aI2
asg6
I3
ssI3
(dp2938
g4
(lp2939
I13
aI19
aI7
aI2
asg6
I3
ssI4
(dp2940
g4
(lp2941
I13
aI17
aI10
aI12
aI2
asg6
I4
sssI3
(dp2942
I0
(dp2943
g4
(lp2944
I13
aI14
aI3
asg6
I2
ssI1
(dp2945
g4
(lp2946
I13
aI17
aI10
aI3
asg6
I3
ssI2
(dp2947
g4
(lp2948
I13
aI2
aI7
aI1
aI3
asg6
I4
ssI3
(dp2949
g4
(lp2950
I13
aI2
aI12
aI10
aI3
asg6
I4
ssI4
(dp2951
g4
(lp2952
I13
aI17
aI10
aI11
aI3
asg6
I4
sssI4
(dp2953
I0
(dp2954
g4
(lp2955
I13
aI2
aI4
asg6
I2
ssI1
(dp2956
g4
(lp2957
I13
aI17
aI10
aI16
aI4
asg6
I4
ssI2
(dp2958
g4
(lp2959
I13
aI17
aI23
aI2
aI4
asg6
I4
ssI3
(dp2960
g4
(lp2961
I13
aI19
aI7
aI2
aI4
asg6
I4
ssI4
(dp2962
g4
(lp2963
I13
aI17
aI7
aI2
aI4
asg6
I4
sssI5
(dp2964
I0
(dp2965
g4
(lp2966
I13
aI17
aI10
aI16
aI5
asg6
I4
ssI1
(dp2967
g4
(lp2968
I13
aI2
aI4
aI16
aI5
asg6
I4
ssI2
(dp2969
g4
(lp2970
I13
aI14
aI3
aI10
aI16
aI5
asg6
I5
ssI3
(dp2971
g4
(lp2972
I13
aI14
aI3
aI1
aI16
aI5
asg6
I5
ssI4
(dp2973
g4
(lp2974
I13
aI2
aI12
aI10
aI16
aI5
asg6
I5
sssI6
(dp2975
I0
(dp2976
g4
(lp2977
I13
aI19
aI6
asg6
I2
ssI1
(dp2978
g4
(lp2979
I13
aI17
aI7
aI6
asg6
I3
ssI2
(dp2980
g4
(lp2981
I13
aI2
aI7
aI6
asg6
I3
ssI3
(dp2982
g4
(lp2983
I13
aI19
aI7
aI6
asg6
I3
ssI4
(dp2984
g4
(lp2985
I13
aI17
aI7
aI19
aI6
asg6
I4
sssI7
(dp2986
I0
(dp2987
g4
(lp2988
I13
aI17
aI7
asg6
I2
ssI1
(dp2989
g4
(lp2990
I13
aI2
aI7
asg6
I2
ssI2
(dp2991
g4
(lp2992
I13
aI19
aI7
asg6
I2
ssI3
(dp2993
g4
(lp2994
I13
aI19
aI6
aI7
asg6
I3
ssI4
(dp2995
g4
(lp2996
I13
aI2
aI23
aI17
aI7
asg6
I4
sssI8
(dp2997
I0
(dp2998
g4
(lp2999
I13
aI17
aI10
aI16
aI9
aI8
asg6
I5
ssI1
(dp3000
g4
(lp3001
I13
aI17
aI10
aI16
aI5
aI8
asg6
I5
ssI2
(dp3002
g4
(lp3003
I13
aI17
aI20
aI15
aI9
aI8
asg6
I5
ssI3
(dp3004
g4
(lp3005
I13
aI2
aI4
aI16
aI9
aI8
asg6
I5
ssI4
(dp3006
g4
(lp3007
I13
aI2
aI4
aI16
aI5
aI8
asg6
I5
sssI9
(dp3008
I0
(dp3009
g4
(lp3010
I13
aI17
aI10
aI16
aI9
asg6
I4
ssI1
(dp3011
g4
(lp3012
I13
aI17
aI20
aI15
aI9
asg6
I4
ssI2
(dp3013
g4
(lp3014
I13
aI2
aI4
aI16
aI9
asg6
I4
ssI3
(dp3015
g4
(lp3016
I13
aI14
aI3
aI10
aI16
aI9
asg6
I5
ssI4
(dp3017
g4
(lp3018
I13
aI14
aI3
aI1
aI16
aI9
asg6
I5
sssI10
(dp3019
I0
(dp3020
g4
(lp3021
I13
aI17
aI10
asg6
I2
ssI1
(dp3022
g4
(lp3023
I13
aI14
aI3
aI10
asg6
I3
ssI2
(dp3024
g4
(lp3025
I13
aI2
aI12
aI10
asg6
I3
ssI3
(dp3026
g4
(lp3027
I13
aI2
aI23
aI17
aI10
asg6
I4
ssI4
(dp3028
g4
(lp3029
I13
aI2
aI4
aI16
aI10
asg6
I4
sssI11
(dp3030
I0
(dp3031
g4
(lp3032
I13
aI17
aI10
aI11
asg6
I3
ssI1
(dp3033
g4
(lp3034
I13
aI14
aI3
aI11
asg6
I3
ssI2
(dp3035
g4
(lp3036
I13
aI14
aI3
aI10
aI11
asg6
I4
ssI3
(dp3037
g4
(lp3038
I13
aI17
aI10
aI3
aI11
asg6
I4
ssI4
(dp3039
g4
(lp3040
I13
aI2
aI12
aI10
aI11
asg6
I4
sssI12
(dp3041
I0
(dp3042
g4
(lp3043
I13
aI2
aI12
asg6
I2
ssI1
(dp3044
g4
(lp3045
I13
aI17
aI10
aI12
asg6
I3
ssI2
(dp3046
g4
(lp3047
I13
aI17
aI23
aI2
aI12
asg6
I4
ssI3
(dp3048
g4
(lp3049
I13
aI17
aI20
aI22
aI12
asg6
I4
ssI4
(dp3050
g4
(lp3051
I13
aI14
aI3
aI10
aI12
asg6
I4
sssI14
(lp3052
(dp3053
g4
(lp3054
I13
aI14
asg6
I1
sa(dp3055
g4
(lp3056
I13
aI17
aI10
aI3
aI14
asg6
I4
sa(dp3057
g4
(lp3058
I13
aI2
aI7
aI1
aI3
aI14
asg6
I5
sa(dp3059
g4
(lp3060
I13
aI17
aI7
aI1
aI3
aI14
asg6
I5
sa(dp3061
g4
(lp3062
I13
aI17
aI10
aI11
aI3
aI14
asg6
I5
sasI15
(lp3063
(dp3064
g4
(lp3065
I13
aI17
aI20
aI15
asg6
I3
sa(dp3066
g4
(lp3067
I13
aI2
aI4
aI16
aI9
aI15
asg6
I5
sa(dp3068
g4
(lp3069
I13
aI17
aI10
aI16
aI9
aI15
asg6
I5
sa(dp3070
g4
(lp3071
I13
aI19
aI7
aI17
aI20
aI15
asg6
I5
sa(dp3072
g4
(lp3073
I13
aI2
aI7
aI17
aI20
aI15
asg6
I5
sasI16
(lp3074
(dp3075
g4
(lp3076
I13
aI17
aI10
aI16
asg6
I3
sa(dp3077
g4
(lp3078
I13
aI2
aI4
aI16
asg6
I3
sa(dp3079
g4
(lp3080
I13
aI17
aI7
aI1
aI16
asg6
I4
sa(dp3081
g4
(lp3082
I13
aI19
aI7
aI1
aI16
asg6
I4
sa(dp3083
g4
(lp3084
I13
aI2
aI7
aI1
aI16
asg6
I4
sasI17
(lp3085
(dp3086
g4
(lp3087
I13
aI17
asg6
I1
sa(dp3088
g4
(lp3089
I13
aI2
aI7
aI17
asg6
I3
sa(dp3090
g4
(lp3091
I13
aI19
aI7
aI17
asg6
I3
sa(dp3092
g4
(lp3093
I13
aI2
aI23
aI17
asg6
I3
sa(dp3094
g4
(lp3095
I13
aI14
aI3
aI10
aI17
asg6
I4
sasI18
(lp3096
(dp3097
g4
(lp3098
I13
aI2
aI18
asg6
I2
sa(dp3099
g4
(lp3100
I13
aI17
aI23
aI2
aI18
asg6
I4
sa(dp3101
g4
(lp3102
I13
aI19
aI7
aI2
aI18
asg6
I4
sa(dp3103
g4
(lp3104
I13
aI17
aI7
aI2
aI18
asg6
I4
sa(dp3105
g4
(lp3106
I13
aI14
aI3
aI21
aI18
asg6
I4
sasI19
(lp3107
(dp3108
g4
(lp3109
I13
aI19
asg6
I1
sa(dp3110
g4
(lp3111
I13
aI2
aI7
aI19
asg6
I3
sa(dp3112
g4
(lp3113
I13
aI17
aI7
aI19
asg6
I3
sa(dp3114
g4
(lp3115
I13
aI2
aI7
aI6
aI19
asg6
I4
sa(dp3116
g4
(lp3117
I13
aI17
aI7
aI6
aI19
asg6
I4
sasI20
(lp3118
(dp3119
g4
(lp3120
I13
aI17
aI20
asg6
I2
sa(dp3121
g4
(lp3122
I13
aI2
aI23
aI17
aI20
asg6
I4
sa(dp3123
g4
(lp3124
I13
aI19
aI7
aI17
aI20
asg6
I4
sa(dp3125
g4
(lp3126
I13
aI2
aI7
aI17
aI20
asg6
I4
sa(dp3127
g4
(lp3128
I13
aI2
aI12
aI22
aI20
asg6
I4
sasI21
(lp3129
(dp3130
g4
(lp3131
I13
aI2
aI18
aI21
asg6
I3
sa(dp3132
g4
(lp3133
I13
aI14
aI3
aI21
asg6
I3
sa(dp3134
g4
(lp3135
I13
aI17
aI10
aI3
aI21
asg6
I4
sa(dp3136
g4
(lp3137
I13
aI2
aI7
aI1
aI3
aI21
asg6
I5
sa(dp3138
g4
(lp3139
I13
aI19
aI7
aI2
aI18
aI21
asg6
I5
sasI22
(lp3140
(dp3141
g4
(lp3142
I13
aI17
aI20
aI22
asg6
I3
sa(dp3143
g4
(lp3144
I13
aI2
aI12
aI22
asg6
I3
sa(dp3145
g4
(lp3146
I13
aI17
aI10
aI12
aI22
asg6
I4
sa(dp3147
g4
(lp3148
I13
aI19
aI7
aI2
aI12
aI22
asg6
I5
sa(dp3149
g4
(lp3150
I13
aI2
aI23
aI17
aI20
aI22
asg6
I5
sasI23
(lp3151
(dp3152
g4
(lp3153
I13
aI17
aI23
asg6
I2
sa(dp3154
g4
(lp3155
I13
aI2
aI23
asg6
I2
sa(dp3156
g4
(lp3157
I13
aI17
aI7
aI2
aI23
asg6
I4
sa(dp3158
g4
(lp3159
I13
aI19
aI7
aI17
aI23
asg6
I4
sa(dp3160
g4
(lp3161
I13
aI2
aI7
aI17
aI23
asg6
I4
sassI14
(dp3162
I1
(dp3163
I0
(dp3164
g4
(lp3165
I14
aI3
aI1
asg6
I2
ssI1
(dp3166
g4
(lp3167
I14
aI3
aI10
aI16
aI1
asg6
I4
ssI2
(dp3168
g4
(lp3169
I14
aI13
aI17
aI7
aI1
asg6
I4
ssI3
(dp3170
g4
(lp3171
I14
aI13
aI2
aI7
aI1
asg6
I4
ssI4
(dp3172
g4
(lp3173
I14
aI13
aI19
aI7
aI1
asg6
I4
sssI2
(dp3174
I0
(dp3175
g4
(lp3176
I14
aI13
aI2
asg6
I2
ssI1
(dp3177
g4
(lp3178
I14
aI3
aI1
aI7
aI2
asg6
I4
ssI2
(dp3179
g4
(lp3180
I14
aI3
aI10
aI12
aI2
asg6
I4
ssI3
(dp3181
g4
(lp3182
I14
aI13
aI17
aI7
aI2
asg6
I4
ssI4
(dp3183
g4
(lp3184
I14
aI3
aI21
aI18
aI2
asg6
I4
sssI3
(dp3185
I0
(dp3186
g4
(lp3187
I14
aI3
asg6
I1
ssI1
(dp3188
g4
(lp3189
I14
aI13
aI17
aI10
aI3
asg6
I4
ssI2
(dp3190
g4
(lp3191
I14
aI13
aI17
aI10
aI11
aI3
asg6
I5
ssI3
(dp3192
g4
(lp3193
I14
aI13
aI2
aI12
aI10
aI3
asg6
I5
ssI4
(dp3194
g4
(lp3195
I14
aI13
aI2
aI7
aI1
aI3
asg6
I5
sssI4
(dp3196
I0
(dp3197
g4
(lp3198
I14
aI13
aI2
aI4
asg6
I3
ssI1
(dp3199
g4
(lp3200
I14
aI3
aI1
aI16
aI4
asg6
I4
ssI2
(dp3201
g4
(lp3202
I14
aI3
aI10
aI16
aI4
asg6
I4
ssI3
(dp3203
g4
(lp3204
I14
aI3
aI1
aI7
aI2
aI4
asg6
I5
ssI4
(dp3205
g4
(lp3206
I14
aI3
aI11
aI10
aI16
aI4
asg6
I5
sssI5
(dp3207
I0
(dp3208
g4
(lp3209
I14
aI3
aI1
aI16
aI5
asg6
I4
ssI1
(dp3210
g4
(lp3211
I14
aI3
aI10
aI16
aI5
asg6
I4
ssI2
(dp3212
g4
(lp3213
I14
aI13
aI2
aI4
aI16
aI5
asg6
I5
ssI3
(dp3214
g4
(lp3215
I14
aI3
aI11
aI10
aI16
aI5
asg6
I5
ssI4
(dp3216
g4
(lp3217
I14
aI13
aI17
aI10
aI16
aI5
asg6
I5
sssI6
(dp3218
I0
(dp3219
g4
(lp3220
I14
aI13
aI19
aI6
asg6
I3
ssI1
(dp3221
g4
(lp3222
I14
aI3
aI1
aI7
aI6
asg6
I4
ssI2
(dp3223
g4
(lp3224
I14
aI13
aI17
aI7
aI6
asg6
I4
ssI3
(dp3225
g4
(lp3226
I14
aI13
aI2
aI7
aI6
asg6
I4
ssI4
(dp3227
g4
(lp3228
I14
aI13
aI19
aI7
aI6
asg6
I4
sssI7
(dp3229
I0
(dp3230
g4
(lp3231
I14
aI3
aI1
aI7
asg6
I3
ssI1
(dp3232
g4
(lp3233
I14
aI13
aI17
aI7
asg6
I3
ssI2
(dp3234
g4
(lp3235
I14
aI13
aI2
aI7
asg6
I3
ssI3
(dp3236
g4
(lp3237
I14
aI13
aI19
aI7
asg6
I3
ssI4
(dp3238
g4
(lp3239
I14
aI3
aI10
aI17
aI7
asg6
I4
sssI8
(dp3240
I0
(dp3241
g4
(lp3242
I14
aI3
aI1
aI16
aI9
aI8
asg6
I5
ssI1
(dp3243
g4
(lp3244
I14
aI3
aI1
aI16
aI5
aI8
asg6
I5
ssI2
(dp3245
g4
(lp3246
I14
aI3
aI10
aI16
aI9
aI8
asg6
I5
ssI3
(dp3247
g4
(lp3248
I14
aI3
aI10
aI16
aI5
aI8
asg6
I5
ssI4
(dp3249
g4
(lp3250
I14
aI13
aI17
aI20
aI15
aI9
aI8
asg6
I6
sssI9
(dp3251
I0
(dp3252
g4
(lp3253
I14
aI3
aI1
aI16
aI9
asg6
I4
ssI1
(dp3254
g4
(lp3255
I14
aI3
aI10
aI16
aI9
asg6
I4
ssI2
(dp3256
g4
(lp3257
I14
aI13
aI17
aI20
aI15
aI9
asg6
I5
ssI3
(dp3258
g4
(lp3259
I14
aI13
aI2
aI4
aI16
aI9
asg6
I5
ssI4
(dp3260
g4
(lp3261
I14
aI3
aI11
aI10
aI16
aI9
asg6
I5
sssI10
(dp3262
I0
(dp3263
g4
(lp3264
I14
aI3
aI10
asg6
I2
ssI1
(dp3265
g4
(lp3266
I14
aI3
aI11
aI10
asg6
I3
ssI2
(dp3267
g4
(lp3268
I14
aI13
aI17
aI10
asg6
I3
ssI3
(dp3269
g4
(lp3270
I14
aI3
aI1
aI16
aI10
asg6
I4
ssI4
(dp3271
g4
(lp3272
I14
aI13
aI2
aI12
aI10
asg6
I4
sssI11
(dp3273
I0
(dp3274
g4
(lp3275
I14
aI3
aI11
asg6
I2
ssI1
(dp3276
g4
(lp3277
I14
aI3
aI10
aI11
asg6
I3
ssI2
(dp3278
g4
(lp3279
I14
aI13
aI17
aI10
aI11
asg6
I4
ssI3
(dp3280
g4
(lp3281
I14
aI13
aI17
aI10
aI3
aI11
asg6
I5
ssI4
(dp3282
g4
(lp3283
I14
aI3
aI1
aI16
aI10
aI11
asg6
I5
sssI12
(dp3284
I0
(dp3285
g4
(lp3286
I14
aI3
aI10
aI12
asg6
I3
ssI1
(dp3287
g4
(lp3288
I14
aI13
aI2
aI12
asg6
I3
ssI2
(dp3289
g4
(lp3290
I14
aI3
aI11
aI10
aI12
asg6
I4
ssI3
(dp3291
g4
(lp3292
I14
aI13
aI17
aI10
aI12
asg6
I4
ssI4
(dp3293
g4
(lp3294
I14
aI13
aI17
aI20
aI22
aI12
asg6
I5
sssI13
(dp3295
I0
(dp3296
g4
(lp3297
I14
aI13
asg6
I1
ssI1
(dp3298
g4
(lp3299
I14
aI3
aI10
aI17
aI13
asg6
I4
ssI2
(dp3300
g4
(lp3301
I14
aI3
aI1
aI7
aI2
aI13
asg6
I5
ssI3
(dp3302
g4
(lp3303
I14
aI3
aI1
aI7
aI17
aI13
asg6
I5
ssI4
(dp3304
g4
(lp3305
I14
aI3
aI11
aI10
aI17
aI13
asg6
I5
sssI15
(lp3306
(dp3307
g4
(lp3308
I14
aI13
aI17
aI20
aI15
asg6
I4
sa(dp3309
g4
(lp3310
I14
aI3
aI1
aI16
aI9
aI15
asg6
I5
sa(dp3311
g4
(lp3312
I14
aI3
aI10
aI16
aI9
aI15
asg6
I5
sa(dp3313
g4
(lp3314
I14
aI3
aI10
aI17
aI20
aI15
asg6
I5
sa(dp3315
g4
(lp3316
I14
aI13
aI2
aI4
aI16
aI9
aI15
asg6
I6
sasI16
(lp3317
(dp3318
g4
(lp3319
I14
aI3
aI1
aI16
asg6
I3
sa(dp3320
g4
(lp3321
I14
aI3
aI10
aI16
asg6
I3
sa(dp3322
g4
(lp3323
I14
aI13
aI17
aI10
aI16
asg6
I4
sa(dp3324
g4
(lp3325
I14
aI3
aI11
aI10
aI16
asg6
I4
sa(dp3326
g4
(lp3327
I14
aI13
aI2
aI4
aI16
asg6
I4
sasI17
(lp3328
(dp3329
g4
(lp3330
I14
aI13
aI17
asg6
I2
sa(dp3331
g4
(lp3332
I14
aI3
aI10
aI17
asg6
I3
sa(dp3333
g4
(lp3334
I14
aI13
aI2
aI7
aI17
asg6
I4
sa(dp3335
g4
(lp3336
I14
aI3
aI1
aI7
aI17
asg6
I4
sa(dp3337
g4
(lp3338
I14
aI13
aI19
aI7
aI17
asg6
I4
sasI18
(lp3339
(dp3340
g4
(lp3341
I14
aI3
aI21
aI18
asg6
I3
sa(dp3342
g4
(lp3343
I14
aI13
aI2
aI18
asg6
I3
sa(dp3344
g4
(lp3345
I14
aI3
aI1
aI7
aI2
aI18
asg6
I5
sa(dp3346
g4
(lp3347
I14
aI13
aI17
aI7
aI2
aI18
asg6
I5
sa(dp3348
g4
(lp3349
I14
aI3
aI10
aI12
aI2
aI18
asg6
I5
sasI19
(lp3350
(dp3351
g4
(lp3352
I14
aI13
aI19
asg6
I2
sa(dp3353
g4
(lp3354
I14
aI3
aI1
aI7
aI19
asg6
I4
sa(dp3355
g4
(lp3356
I14
aI13
aI17
aI7
aI19
asg6
I4
sa(dp3357
g4
(lp3358
I14
aI13
aI2
aI7
aI19
asg6
I4
sa(dp3359
g4
(lp3360
I14
aI3
aI10
aI17
aI13
aI19
asg6
I5
sasI20
(lp3361
(dp3362
g4
(lp3363
I14
aI13
aI17
aI20
asg6
I3
sa(dp3364
g4
(lp3365
I14
aI3
aI10
aI17
aI20
asg6
I4
sa(dp3366
g4
(lp3367
I14
aI13
aI2
aI23
aI17
aI20
asg6
I5
sa(dp3368
g4
(lp3369
I14
aI3
aI11
aI10
aI17
aI20
asg6
I5
sa(dp3370
g4
(lp3371
I14
aI3
aI10
aI12
aI22
aI20
asg6
I5
sasI21
(lp3372
(dp3373
g4
(lp3374
I14
aI3
aI21
asg6
I2
sa(dp3375
g4
(lp3376
I14
aI13
aI2
aI18
aI21
asg6
I4
sa(dp3377
g4
(lp3378
I14
aI13
aI17
aI10
aI3
aI21
asg6
I5
sa(dp3379
g4
(lp3380
I14
aI3
aI1
aI7
aI2
aI18
aI21
asg6
I6
sa(dp3381
g4
(lp3382
I14
aI13
aI2
aI7
aI1
aI3
aI21
asg6
I6
sasI22
(lp3383
(dp3384
g4
(lp3385
I14
aI13
aI17
aI20
aI22
asg6
I4
sa(dp3386
g4
(lp3387
I14
aI3
aI10
aI12
aI22
asg6
I4
sa(dp3388
g4
(lp3389
I14
aI13
aI2
aI12
aI22
asg6
I4
sa(dp3390
g4
(lp3391
I14
aI13
aI17
aI10
aI12
aI22
asg6
I5
sa(dp3392
g4
(lp3393
I14
aI3
aI11
aI10
aI12
aI22
asg6
I5
sasI23
(lp3394
(dp3395
g4
(lp3396
I14
aI13
aI17
aI23
asg6
I3
sa(dp3397
g4
(lp3398
I14
aI13
aI2
aI23
asg6
I3
sa(dp3399
g4
(lp3400
I14
aI3
aI10
aI17
aI23
asg6
I4
sa(dp3401
g4
(lp3402
I14
aI13
aI17
aI7
aI2
aI23
asg6
I5
sa(dp3403
g4
(lp3404
I14
aI13
aI19
aI7
aI2
aI23
asg6
I5
sassI15
(dp3405
I1
(dp3406
I0
(dp3407
g4
(lp3408
I15
aI9
aI16
aI1
asg6
I3
ssI1
(dp3409
g4
(lp3410
I15
aI20
aI17
aI7
aI1
asg6
I4
ssI2
(dp3411
g4
(lp3412
I15
aI20
aI17
aI10
aI16
aI1
asg6
I5
ssI3
(dp3413
g4
(lp3414
I15
aI9
aI16
aI10
aI3
aI1
asg6
I5
ssI4
(dp3415
g4
(lp3416
I15
aI9
aI8
aI5
aI16
aI1
asg6
I5
sssI2
(dp3417
I0
(dp3418
g4
(lp3419
I15
aI9
aI16
aI4
aI2
asg6
I4
ssI1
(dp3420
g4
(lp3421
I15
aI20
aI17
aI23
aI2
asg6
I4
ssI2
(dp3422
g4
(lp3423
I15
aI20
aI17
aI7
aI2
asg6
I4
ssI3
(dp3424
g4
(lp3425
I15
aI20
aI22
aI12
aI2
asg6
I4
ssI4
(dp3426
g4
(lp3427
I15
aI20
aI17
aI13
aI2
asg6
I4
sssI3
(dp3428
I0
(dp3429
g4
(lp3430
I15
aI9
aI16
aI1
aI3
asg6
I4
ssI1
(dp3431
g4
(lp3432
I15
aI9
aI16
aI10
aI3
asg6
I4
ssI2
(dp3433
g4
(lp3434
I15
aI20
aI17
aI10
aI3
asg6
I4
ssI3
(dp3435
g4
(lp3436
I15
aI20
aI17
aI7
aI1
aI3
asg6
I5
ssI4
(dp3437
g4
(lp3438
I15
aI9
aI16
aI10
aI11
aI3
asg6
I5
sssI4
(dp3439
I0
(dp3440
g4
(lp3441
I15
aI9
aI16
aI4
asg6
I3
ssI1
(dp3442
g4
(lp3443
I15
aI20
aI17
aI23
aI2
aI4
asg6
I5
ssI2
(dp3444
g4
(lp3445
I15
aI20
aI17
aI10
aI16
aI4
asg6
I5
ssI3
(dp3446
g4
(lp3447
I15
aI20
aI17
aI7
aI2
aI4
asg6
I5
ssI4
(dp3448
g4
(lp3449
I15
aI9
aI8
aI5
aI16
aI4
asg6
I5
sssI5
(dp3450
I0
(dp3451
g4
(lp3452
I15
aI9
aI8
aI5
asg6
I3
ssI1
(dp3453
g4
(lp3454
I15
aI9
aI16
aI5
asg6
I3
ssI2
(dp3455
g4
(lp3456
I15
aI20
aI17
aI10
aI16
aI5
asg6
I5
ssI3
(dp3457
g4
(lp3458
I15
aI20
aI17
aI7
aI1
aI16
aI5
asg6
I6
ssI4
(dp3459
g4
(lp3460
I15
aI20
aI22
aI12
aI10
aI16
aI5
asg6
I6
sssI6
(dp3461
I0
(dp3462
g4
(lp3463
I15
aI20
aI17
aI7
aI6
asg6
I4
ssI1
(dp3464
g4
(lp3465
I15
aI20
aI17
aI13
aI19
aI6
asg6
I5
ssI2
(dp3466
g4
(lp3467
I15
aI9
aI16
aI1
aI7
aI6
asg6
I5
ssI3
(dp3468
g4
(lp3469
I15
aI20
aI17
aI7
aI19
aI6
asg6
I5
ssI4
(dp3470
g4
(lp3471
I15
aI9
aI16
aI10
aI17
aI7
aI6
asg6
I6
sssI7
(dp3472
I0
(dp3473
g4
(lp3474
I15
aI20
aI17
aI7
asg6
I3
ssI1
(dp3475
g4
(lp3476
I15
aI9
aI16
aI1
aI7
asg6
I4
ssI2
(dp3477
g4
(lp3478
I15
aI9
aI16
aI10
aI17
aI7
asg6
I5
ssI3
(dp3479
g4
(lp3480
I15
aI9
aI16
aI4
aI2
aI7
asg6
I5
ssI4
(dp3481
g4
(lp3482
I15
aI20
aI17
aI13
aI19
aI7
asg6
I5
sssI8
(dp3483
I0
(dp3484
g4
(lp3485
I15
aI9
aI8
asg6
I2
ssI1
(dp3486
g4
(lp3487
I15
aI9
aI16
aI5
aI8
asg6
I4
ssI2
(dp3488
g4
(lp3489
I15
aI20
aI17
aI10
aI16
aI9
aI8
asg6
I6
ssI3
(dp3490
g4
(lp3491
I15
aI20
aI17
aI10
aI16
aI5
aI8
asg6
I6
ssI4
(dp3492
g4
(lp3493
I15
aI20
aI17
aI7
aI1
aI16
aI9
aI8
asg6
I7
sssI9
(dp3494
I0
(dp3495
g4
(lp3496
I15
aI9
asg6
I1
ssI1
(dp3497
g4
(lp3498
I15
aI20
aI17
aI10
aI16
aI9
asg6
I5
ssI2
(dp3499
g4
(lp3500
I15
aI20
aI17
aI7
aI1
aI16
aI9
asg6
I6
ssI3
(dp3501
g4
(lp3502
I15
aI20
aI22
aI12
aI10
aI16
aI9
asg6
I6
ssI4
(dp3503
g4
(lp3504
I15
aI20
aI17
aI10
aI16
aI5
aI8
aI9
asg6
I7
sssI10
(dp3505
I0
(dp3506
g4
(lp3507
I15
aI9
aI16
aI10
asg6
I3
ssI1
(dp3508
g4
(lp3509
I15
aI20
aI17
aI10
asg6
I3
ssI2
(dp3510
g4
(lp3511
I15
aI20
aI22
aI12
aI10
asg6
I4
ssI3
(dp3512
g4
(lp3513
I15
aI9
aI8
aI5
aI16
aI10
asg6
I5
ssI4
(dp3514
g4
(lp3515
I15
aI9
aI16
aI1
aI3
aI10
asg6
I5
sssI11
(dp3516
I0
(dp3517
g4
(lp3518
I15
aI9
aI16
aI10
aI11
asg6
I4
ssI1
(dp3519
g4
(lp3520
I15
aI20
aI17
aI10
aI11
asg6
I4
ssI2
(dp3521
g4
(lp3522
I15
aI9
aI16
aI1
aI3
aI11
asg6
I5
ssI3
(dp3523
g4
(lp3524
I15
aI20
aI22
aI12
aI10
aI11
asg6
I5
ssI4
(dp3525
g4
(lp3526
I15
aI9
aI16
aI10
aI3
aI11
asg6
I5
sssI12
(dp3527
I0
(dp3528
g4
(lp3529
I15
aI20
aI22
aI12
asg6
I3
ssI1
(dp3530
g4
(lp3531
I15
aI9
aI16
aI10
aI12
asg6
I4
ssI2
(dp3532
g4
(lp3533
I15
aI20
aI17
aI10
aI12
asg6
I4
ssI3
(dp3534
g4
(lp3535
I15
aI9
aI16
aI4
aI2
aI12
asg6
I5
ssI4
(dp3536
g4
(lp3537
I15
aI20
aI17
aI7
aI2
aI12
asg6
I5
sssI13
(dp3538
I0
(dp3539
g4
(lp3540
I15
aI20
aI17
aI13
asg6
I3
ssI1
(dp3541
g4
(lp3542
I15
aI9
aI16
aI4
aI2
aI13
asg6
I5
ssI2
(dp3543
g4
(lp3544
I15
aI9
aI16
aI10
aI17
aI13
asg6
I5
ssI3
(dp3545
g4
(lp3546
I15
aI20
aI17
aI7
aI19
aI13
asg6
I5
ssI4
(dp3547
g4
(lp3548
I15
aI20
aI17
aI7
aI2
aI13
asg6
I5
sssI14
(dp3549
I0
(dp3550
g4
(lp3551
I15
aI20
aI17
aI13
aI14
asg6
I4
ssI1
(dp3552
g4
(lp3553
I15
aI9
aI16
aI1
aI3
aI14
asg6
I5
ssI2
(dp3554
g4
(lp3555
I15
aI9
aI16
aI10
aI3
aI14
asg6
I5
ssI3
(dp3556
g4
(lp3557
I15
aI20
aI17
aI10
aI3
aI14
asg6
I5
ssI4
(dp3558
g4
(lp3559
I15
aI9
aI16
aI4
aI2
aI13
aI14
asg6
I6
sssI16
(lp3560
(dp3561
g4
(lp3562
I15
aI9
aI16
asg6
I2
sa(dp3563
g4
(lp3564
I15
aI20
aI17
aI10
aI16
asg6
I4
sa(dp3565
g4
(lp3566
I15
aI9
aI8
aI5
aI16
asg6
I4
sa(dp3567
g4
(lp3568
I15
aI20
aI22
aI12
aI10
aI16
asg6
I5
sa(dp3569
g4
(lp3570
I15
aI20
aI17
aI7
aI1
aI16
asg6
I5
sasI17
(lp3571
(dp3572
g4
(lp3573
I15
aI20
aI17
asg6
I2
sa(dp3574
g4
(lp3575
I15
aI9
aI16
aI10
aI17
asg6
I4
sa(dp3576
g4
(lp3577
I15
aI20
aI22
aI12
aI10
aI17
asg6
I5
sa(dp3578
g4
(lp3579
I15
aI9
aI16
aI1
aI7
aI17
asg6
I5
sa(dp3580
g4
(lp3581
I15
aI9
aI8
aI5
aI16
aI10
aI17
asg6
I6
sasI18
(lp3582
(dp3583
g4
(lp3584
I15
aI9
aI16
aI4
aI2
aI18
asg6
I5
sa(dp3585
g4
(lp3586
I15
aI20
aI17
aI7
aI2
aI18
asg6
I5
sa(dp3587
g4
(lp3588
I15
aI20
aI22
aI12
aI2
aI18
asg6
I5
sa(dp3589
g4
(lp3590
I15
aI20
aI17
aI13
aI2
aI18
asg6
I5
sa(dp3591
g4
(lp3592
I15
aI20
aI17
aI23
aI2
aI18
asg6
I5
sasI19
(lp3593
(dp3594
g4
(lp3595
I15
aI20
aI17
aI13
aI19
asg6
I4
sa(dp3596
g4
(lp3597
I15
aI20
aI17
aI7
aI19
asg6
I4
sa(dp3598
g4
(lp3599
I15
aI9
aI16
aI1
aI7
aI19
asg6
I5
sa(dp3600
g4
(lp3601
I15
aI20
aI17
aI7
aI6
aI19
asg6
I5
sa(dp3602
g4
(lp3603
I15
aI20
aI22
aI12
aI2
aI7
aI19
asg6
I6
sasI20
(lp3604
(dp3605
g4
(lp3606
I15
aI20
asg6
I1
sa(dp3607
g4
(lp3608
I15
aI9
aI16
aI10
aI17
aI20
asg6
I5
sa(dp3609
g4
(lp3610
I15
aI9
aI16
aI1
aI7
aI17
aI20
asg6
I6
sa(dp3611
g4
(lp3612
I15
aI9
aI16
aI10
aI12
aI22
aI20
asg6
I6
sa(dp3613
g4
(lp3614
I15
aI9
aI8
aI5
aI16
aI10
aI17
aI20
asg6
I7
sasI21
(lp3615
(dp3616
g4
(lp3617
I15
aI9
aI16
aI1
aI3
aI21
asg6
I5
sa(dp3618
g4
(lp3619
I15
aI20
aI17
aI10
aI3
aI21
asg6
I5
sa(dp3620
g4
(lp3621
I15
aI9
aI16
aI10
aI3
aI21
asg6
I5
sa(dp3622
g4
(lp3623
I15
aI20
aI22
aI12
aI2
aI18
aI21
asg6
I6
sa(dp3624
g4
(lp3625
I15
aI20
aI17
aI23
aI2
aI18
aI21
asg6
I6
sasI22
(lp3626
(dp3627
g4
(lp3628
I15
aI20
aI22
asg6
I2
sa(dp3629
g4
(lp3630
I15
aI9
aI16
aI10
aI12
aI22
asg6
I5
sa(dp3631
g4
(lp3632
I15
aI20
aI17
aI10
aI12
aI22
asg6
I5
sa(dp3633
g4
(lp3634
I15
aI9
aI16
aI4
aI2
aI12
aI22
asg6
I6
sa(dp3635
g4
(lp3636
I15
aI9
aI16
aI10
aI17
aI20
aI22
asg6
I6
sasI23
(lp3637
(dp3638
g4
(lp3639
I15
aI20
aI17
aI23
asg6
I3
sa(dp3640
g4
(lp3641
I15
aI9
aI16
aI10
aI17
aI23
asg6
I5
sa(dp3642
g4
(lp3643
I15
aI20
aI22
aI12
aI2
aI23
asg6
I5
sa(dp3644
g4
(lp3645
I15
aI20
aI17
aI7
aI2
aI23
asg6
I5
sa(dp3646
g4
(lp3647
I15
aI9
aI16
aI4
aI2
aI23
asg6
I5
sassI16
(dp3648
I1
(dp3649
I0
(dp3650
g4
(lp3651
I16
aI1
asg6
I1
ssI1
(dp3652
g4
(lp3653
I16
aI10
aI3
aI1
asg6
I3
ssI2
(dp3654
g4
(lp3655
I16
aI4
aI2
aI7
aI1
asg6
I4
ssI3
(dp3656
g4
(lp3657
I16
aI10
aI11
aI3
aI1
asg6
I4
ssI4
(dp3658
g4
(lp3659
I16
aI10
aI17
aI7
aI1
asg6
I4
sssI2
(dp3660
I0
(dp3661
g4
(lp3662
I16
aI4
aI2
asg6
I2
ssI1
(dp3663
g4
(lp3664
I16
aI1
aI7
aI2
asg6
I3
ssI2
(dp3665
g4
(lp3666
I16
aI10
aI12
aI2
asg6
I3
ssI3
(dp3667
g4
(lp3668
I16
aI10
aI17
aI7
aI2
asg6
I4
ssI4
(dp3669
g4
(lp3670
I16
aI10
aI17
aI13
aI2
asg6
I4
sssI3
(dp3671
I0
(dp3672
g4
(lp3673
I16
aI1
aI3
asg6
I2
ssI1
(dp3674
g4
(lp3675
I16
aI10
aI3
asg6
I2
ssI2
(dp3676
g4
(lp3677
I16
aI10
aI11
aI3
asg6
I3
ssI3
(dp3678
g4
(lp3679
I16
aI4
aI2
aI7
aI1
aI3
asg6
I5
ssI4
(dp3680
g4
(lp3681
I16
aI1
aI7
aI17
aI10
aI3
asg6
I5
sssI4
(dp3682
I0
(dp3683
g4
(lp3684
I16
aI4
asg6
I1
ssI1
(dp3685
g4
(lp3686
I16
aI1
aI7
aI2
aI4
asg6
I4
ssI2
(dp3687
g4
(lp3688
I16
aI10
aI12
aI2
aI4
asg6
I4
ssI3
(dp3689
g4
(lp3690
I16
aI10
aI17
aI7
aI2
aI4
asg6
I5
ssI4
(dp3691
g4
(lp3692
I16
aI10
aI17
aI13
aI2
aI4
asg6
I5
sssI5
(dp3693
I0
(dp3694
g4
(lp3695
I16
aI5
asg6
I1
ssI1
(dp3696
g4
(lp3697
I16
aI9
aI8
aI5
asg6
I3
ssI2
(dp3698
g4
(lp3699
I16
aI10
aI17
aI20
aI15
aI9
aI8
aI5
asg6
I7
ssI3
(dp3700
g4
(lp3701
I16
aI10
aI12
aI22
aI20
aI15
aI9
aI8
aI5
asg6
I8
ssI4
(dp3702
g4
(lp3703
I16
aI1
aI7
aI17
aI20
aI15
aI9
aI8
aI5
asg6
I8
sssI6
(dp3704
I0
(dp3705
g4
(lp3706
I16
aI1
aI7
aI6
asg6
I3
ssI1
(dp3707
g4
(lp3708
I16
aI1
aI7
aI19
aI6
asg6
I4
ssI2
(dp3709
g4
(lp3710
I16
aI4
aI2
aI7
aI6
asg6
I4
ssI3
(dp3711
g4
(lp3712
I16
aI10
aI17
aI7
aI6
asg6
I4
ssI4
(dp3713
g4
(lp3714
I16
aI10
aI3
aI1
aI7
aI6
asg6
I5
sssI7
(dp3715
I0
(dp3716
g4
(lp3717
I16
aI1
aI7
asg6
I2
ssI1
(dp3718
g4
(lp3719
I16
aI4
aI2
aI7
asg6
I3
ssI2
(dp3720
g4
(lp3721
I16
aI10
aI17
aI7
asg6
I3
ssI3
(dp3722
g4
(lp3723
I16
aI10
aI3
aI1
aI7
asg6
I4
ssI4
(dp3724
g4
(lp3725
I16
aI10
aI12
aI2
aI7
asg6
I4
sssI8
(dp3726
I0
(dp3727
g4
(lp3728
I16
aI5
aI8
asg6
I2
ssI1
(dp3729
g4
(lp3730
I16
aI9
aI8
asg6
I2
ssI2
(dp3731
g4
(lp3732
I16
aI10
aI17
aI20
aI15
aI9
aI8
asg6
I6
ssI3
(dp3733
g4
(lp3734
I16
aI10
aI12
aI22
aI20
aI15
aI9
aI8
asg6
I7
ssI4
(dp3735
g4
(lp3736
I16
aI1
aI7
aI17
aI20
aI15
aI9
aI8
asg6
I7
sssI9
(dp3737
I0
(dp3738
g4
(lp3739
I16
aI9
asg6
I1
ssI1
(dp3740
g4
(lp3741
I16
aI5
aI8
aI9
asg6
I3
ssI2
(dp3742
g4
(lp3743
I16
aI10
aI17
aI20
aI15
aI9
asg6
I5
ssI3
(dp3744
g4
(lp3745
I16
aI10
aI12
aI22
aI20
aI15
aI9
asg6
I6
ssI4
(dp3746
g4
(lp3747
I16
aI1
aI7
aI17
aI20
aI15
aI9
asg6
I6
sssI10
(dp3748
I0
(dp3749
g4
(lp3750
I16
aI10
asg6
I1
ssI1
(dp3751
g4
(lp3752
I16
aI1
aI3
aI10
asg6
I3
ssI2
(dp3753
g4
(lp3754
I16
aI1
aI3
aI11
aI10
asg6
I4
ssI3
(dp3755
g4
(lp3756
I16
aI1
aI7
aI17
aI10
asg6
I4
ssI4
(dp3757
g4
(lp3758
I16
aI4
aI2
aI12
aI10
asg6
I4
sssI11
(dp3759
I0
(dp3760
g4
(lp3761
I16
aI10
aI11
asg6
I2
ssI1
(dp3762
g4
(lp3763
I16
aI1
aI3
aI11
asg6
I3
ssI2
(dp3764
g4
(lp3765
I16
aI10
aI3
aI11
asg6
I3
ssI3
(dp3766
g4
(lp3767
I16
aI1
aI3
aI10
aI11
asg6
I4
ssI4
(dp3768
g4
(lp3769
I16
aI1
aI7
aI17
aI10
aI11
asg6
I5
sssI12
(dp3770
I0
(dp3771
g4
(lp3772
I16
aI10
aI12
asg6
I2
ssI1
(dp3773
g4
(lp3774
I16
aI4
aI2
aI12
asg6
I3
ssI2
(dp3775
g4
(lp3776
I16
aI1
aI3
aI10
aI12
asg6
I4
ssI3
(dp3777
g4
(lp3778
I16
aI1
aI7
aI2
aI12
asg6
I4
ssI4
(dp3779
g4
(lp3780
I16
aI10
aI17
aI20
aI22
aI12
asg6
I5
sssI13
(dp3781
I0
(dp3782
g4
(lp3783
I16
aI10
aI17
aI13
asg6
I3
ssI1
(dp3784
g4
(lp3785
I16
aI4
aI2
aI13
asg6
I3
ssI2
(dp3786
g4
(lp3787
I16
aI1
aI7
aI17
aI13
asg6
I4
ssI3
(dp3788
g4
(lp3789
I16
aI1
aI7
aI19
aI13
asg6
I4
ssI4
(dp3790
g4
(lp3791
I16
aI1
aI7
aI2
aI13
asg6
I4
sssI14
(dp3792
I0
(dp3793
g4
(lp3794
I16
aI1
aI3
aI14
asg6
I3
ssI1
(dp3795
g4
(lp3796
I16
aI10
aI3
aI14
asg6
I3
ssI2
(dp3797
g4
(lp3798
I16
aI10
aI17
aI13
aI14
asg6
I4
ssI3
(dp3799
g4
(lp3800
I16
aI10
aI11
aI3
aI14
asg6
I4
ssI4
(dp3801
g4
(lp3802
I16
aI4
aI2
aI13
aI14
asg6
I4
sssI15
(dp3803
I0
(dp3804
g4
(lp3805
I16
aI9
aI15
asg6
I2
ssI1
(dp3806
g4
(lp3807
I16
aI10
aI17
aI20
aI15
asg6
I4
ssI2
(dp3808
g4
(lp3809
I16
aI5
aI8
aI9
aI15
asg6
I4
ssI3
(dp3810
g4
(lp3811
I16
aI10
aI12
aI22
aI20
aI15
asg6
I5
ssI4
(dp3812
g4
(lp3813
I16
aI1
aI7
aI17
aI20
aI15
asg6
I5
sssI17
(lp3814
(dp3815
g4
(lp3816
I16
aI10
aI17
asg6
I2
sa(dp3817
g4
(lp3818
I16
aI1
aI7
aI17
asg6
I3
sa(dp3819
g4
(lp3820
I16
aI4
aI2
aI7
aI17
asg6
I4
sa(dp3821
g4
(lp3822
I16
aI1
aI3
aI10
aI17
asg6
I4
sa(dp3823
g4
(lp3824
I16
aI9
aI15
aI20
aI17
asg6
I4
sasI18
(lp3825
(dp3826
g4
(lp3827
I16
aI4
aI2
aI18
asg6
I3
sa(dp3828
g4
(lp3829
I16
aI1
aI3
aI21
aI18
asg6
I4
sa(dp3830
g4
(lp3831
I16
aI10
aI3
aI21
aI18
asg6
I4
sa(dp3832
g4
(lp3833
I16
aI1
aI7
aI2
aI18
asg6
I4
sa(dp3834
g4
(lp3835
I16
aI10
aI12
aI2
aI18
asg6
I4
sasI19
(lp3836
(dp3837
g4
(lp3838
I16
aI1
aI7
aI19
asg6
I3
sa(dp3839
g4
(lp3840
I16
aI10
aI17
aI13
aI19
asg6
I4
sa(dp3841
g4
(lp3842
I16
aI1
aI7
aI6
aI19
asg6
I4
sa(dp3843
g4
(lp3844
I16
aI4
aI2
aI7
aI19
asg6
I4
sa(dp3845
g4
(lp3846
I16
aI10
aI17
aI7
aI19
asg6
I4
sasI20
(lp3847
(dp3848
g4
(lp3849
I16
aI10
aI17
aI20
asg6
I3
sa(dp3850
g4
(lp3851
I16
aI9
aI15
aI20
asg6
I3
sa(dp3852
g4
(lp3853
I16
aI10
aI12
aI22
aI20
asg6
I4
sa(dp3854
g4
(lp3855
I16
aI1
aI7
aI17
aI20
asg6
I4
sa(dp3856
g4
(lp3857
I16
aI4
aI2
aI23
aI17
aI20
asg6
I5
sasI21
(lp3858
(dp3859
g4
(lp3860
I16
aI1
aI3
aI21
asg6
I3
sa(dp3861
g4
(lp3862
I16
aI10
aI3
aI21
asg6
I3
sa(dp3863
g4
(lp3864
I16
aI4
aI2
aI18
aI21
asg6
I4
sa(dp3865
g4
(lp3866
I16
aI10
aI11
aI3
aI21
asg6
I4
sa(dp3867
g4
(lp3868
I16
aI1
aI7
aI2
aI18
aI21
asg6
I5
sasI22
(lp3869
(dp3870
g4
(lp3871
I16
aI10
aI12
aI22
asg6
I3
sa(dp3872
g4
(lp3873
I16
aI4
aI2
aI12
aI22
asg6
I4
sa(dp3874
g4
(lp3875
I16
aI10
aI17
aI20
aI22
asg6
I4
sa(dp3876
g4
(lp3877
I16
aI9
aI15
aI20
aI22
asg6
I4
sa(dp3878
g4
(lp3879
I16
aI1
aI3
aI10
aI12
aI22
asg6
I5
sasI23
(lp3880
(dp3881
g4
(lp3882
I16
aI10
aI17
aI23
asg6
I3
sa(dp3883
g4
(lp3884
I16
aI4
aI2
aI23
asg6
I3
sa(dp3885
g4
(lp3886
I16
aI10
aI12
aI2
aI23
asg6
I4
sa(dp3887
g4
(lp3888
I16
aI1
aI7
aI17
aI23
asg6
I4
sa(dp3889
g4
(lp3890
I16
aI1
aI7
aI2
aI23
asg6
I4
sassI17
(dp3891
I1
(dp3892
I0
(dp3893
g4
(lp3894
I17
aI7
aI1
asg6
I2
ssI1
(dp3895
g4
(lp3896
I17
aI10
aI16
aI1
asg6
I3
ssI2
(dp3897
g4
(lp3898
I17
aI10
aI3
aI1
asg6
I3
ssI3
(dp3899
g4
(lp3900
I17
aI13
aI2
aI7
aI1
asg6
I4
ssI4
(dp3901
g4
(lp3902
I17
aI10
aI11
aI3
aI1
asg6
I4
sssI2
(dp3903
I0
(dp3904
g4
(lp3905
I17
aI23
aI2
asg6
I2
ssI1
(dp3906
g4
(lp3907
I17
aI13
aI2
asg6
I2
ssI2
(dp3908
g4
(lp3909
I17
aI7
aI2
asg6
I2
ssI3
(dp3910
g4
(lp3911
I17
aI10
aI12
aI2
asg6
I3
ssI4
(dp3912
g4
(lp3913
I17
aI7
aI19
aI13
aI2
asg6
I4
sssI3
(dp3914
I0
(dp3915
g4
(lp3916
I17
aI10
aI3
asg6
I2
ssI1
(dp3917
g4
(lp3918
I17
aI7
aI1
aI3
asg6
I3
ssI2
(dp3919
g4
(lp3920
I17
aI10
aI11
aI3
asg6
I3
ssI3
(dp3921
g4
(lp3922
I17
aI13
aI14
aI3
asg6
I3
ssI4
(dp3923
g4
(lp3924
I17
aI10
aI16
aI1
aI3
asg6
I4
sssI4
(dp3925
I0
(dp3926
g4
(lp3927
I17
aI10
aI16
aI4
asg6
I3
ssI1
(dp3928
g4
(lp3929
I17
aI23
aI2
aI4
asg6
I3
ssI2
(dp3930
g4
(lp3931
I17
aI13
aI2
aI4
asg6
I3
ssI3
(dp3932
g4
(lp3933
I17
aI7
aI2
aI4
asg6
I3
ssI4
(dp3934
g4
(lp3935
I17
aI7
aI1
aI16
aI4
asg6
I4
sssI5
(dp3936
I0
(dp3937
g4
(lp3938
I17
aI10
aI16
aI5
asg6
I3
ssI1
(dp3939
g4
(lp3940
I17
aI7
aI1
aI16
aI5
asg6
I4
ssI2
(dp3941
g4
(lp3942
I17
aI10
aI16
aI9
aI8
aI5
asg6
I5
ssI3
(dp3943
g4
(lp3944
I17
aI7
aI2
aI4
aI16
aI5
asg6
I5
ssI4
(dp3945
g4
(lp3946
I17
aI10
aI3
aI1
aI16
aI5
asg6
I5
sssI6
(dp3947
I0
(dp3948
g4
(lp3949
I17
aI7
aI6
asg6
I2
ssI1
(dp3950
g4
(lp3951
I17
aI13
aI19
aI6
asg6
I3
ssI2
(dp3952
g4
(lp3953
I17
aI7
aI19
aI6
asg6
I3
ssI3
(dp3954
g4
(lp3955
I17
aI13
aI2
aI7
aI6
asg6
I4
ssI4
(dp3956
g4
(lp3957
I17
aI13
aI19
aI7
aI6
asg6
I4
sssI7
(dp3958
I0
(dp3959
g4
(lp3960
I17
aI7
asg6
I1
ssI1
(dp3961
g4
(lp3962
I17
aI13
aI2
aI7
asg6
I3
ssI2
(dp3963
g4
(lp3964
I17
aI13
aI19
aI7
asg6
I3
ssI3
(dp3965
g4
(lp3966
I17
aI23
aI2
aI7
asg6
I3
ssI4
(dp3967
g4
(lp3968
I17
aI10
aI16
aI1
aI7
asg6
I4
sssI8
(dp3969
I0
(dp3970
g4
(lp3971
I17
aI10
aI16
aI9
aI8
asg6
I4
ssI1
(dp3972
g4
(lp3973
I17
aI10
aI16
aI5
aI8
asg6
I4
ssI2
(dp3974
g4
(lp3975
I17
aI20
aI15
aI9
aI8
asg6
I4
ssI3
(dp3976
g4
(lp3977
I17
aI7
aI1
aI16
aI9
aI8
asg6
I5
ssI4
(dp3978
g4
(lp3979
I17
aI7
aI1
aI16
aI5
aI8
asg6
I5
sssI9
(dp3980
I0
(dp3981
g4
(lp3982
I17
aI10
aI16
aI9
asg6
I3
ssI1
(dp3983
g4
(lp3984
I17
aI20
aI15
aI9
asg6
I3
ssI2
(dp3985
g4
(lp3986
I17
aI7
aI1
aI16
aI9
asg6
I4
ssI3
(dp3987
g4
(lp3988
I17
aI10
aI16
aI5
aI8
aI9
asg6
I5
ssI4
(dp3989
g4
(lp3990
I17
aI7
aI2
aI4
aI16
aI9
asg6
I5
sssI10
(dp3991
I0
(dp3992
g4
(lp3993
I17
aI10
asg6
I1
ssI1
(dp3994
g4
(lp3995
I17
aI23
aI2
aI12
aI10
asg6
I4
ssI2
(dp3996
g4
(lp3997
I17
aI13
aI14
aI3
aI10
asg6
I4
ssI3
(dp3998
g4
(lp3999
I17
aI20
aI22
aI12
aI10
asg6
I4
ssI4
(dp4000
g4
(lp4001
I17
aI13
aI2
aI12
aI10
asg6
I4
sssI11
(dp4002
I0
(dp4003
g4
(lp4004
I17
aI10
aI11
asg6
I2
ssI1
(dp4005
g4
(lp4006
I17
aI10
aI3
aI11
asg6
I3
ssI2
(dp4007
g4
(lp4008
I17
aI7
aI1
aI3
aI11
asg6
I4
ssI3
(dp4009
g4
(lp4010
I17
aI13
aI14
aI3
aI11
asg6
I4
ssI4
(dp4011
g4
(lp4012
I17
aI23
aI2
aI12
aI10
aI11
asg6
I5
sssI12
(dp4013
I0
(dp4014
g4
(lp4015
I17
aI10
aI12
asg6
I2
ssI1
(dp4016
g4
(lp4017
I17
aI7
aI2
aI12
asg6
I3
ssI2
(dp4018
g4
(lp4019
I17
aI20
aI22
aI12
asg6
I3
ssI3
(dp4020
g4
(lp4021
I17
aI23
aI2
aI12
asg6
I3
ssI4
(dp4022
g4
(lp4023
I17
aI13
aI2
aI12
asg6
I3
sssI13
(dp4024
I0
(dp4025
g4
(lp4026
I17
aI13
asg6
I1
ssI1
(dp4027
g4
(lp4028
I17
aI7
aI2
aI13
asg6
I3
ssI2
(dp4029
g4
(lp4030
I17
aI7
aI19
aI13
asg6
I3
ssI3
(dp4031
g4
(lp4032
I17
aI23
aI2
aI13
asg6
I3
ssI4
(dp4033
g4
(lp4034
I17
aI10
aI3
aI14
aI13
asg6
I4
sssI14
(dp4035
I0
(dp4036
g4
(lp4037
I17
aI13
aI14
asg6
I2
ssI1
(dp4038
g4
(lp4039
I17
aI10
aI3
aI14
asg6
I3
ssI2
(dp4040
g4
(lp4041
I17
aI7
aI2
aI13
aI14
asg6
I4
ssI3
(dp4042
g4
(lp4043
I17
aI7
aI1
aI3
aI14
asg6
I4
ssI4
(dp4044
g4
(lp4045
I17
aI7
aI19
aI13
aI14
asg6
I4
sssI15
(dp4046
I0
(dp4047
g4
(lp4048
I17
aI20
aI15
asg6
I2
ssI1
(dp4049
g4
(lp4050
I17
aI10
aI16
aI9
aI15
asg6
I4
ssI2
(dp4051
g4
(lp4052
I17
aI10
aI12
aI22
aI20
aI15
asg6
I5
ssI3
(dp4053
g4
(lp4054
I17
aI7
aI1
aI16
aI9
aI15
asg6
I5
ssI4
(dp4055
g4
(lp4056
I17
aI10
aI16
aI5
aI8
aI9
aI15
asg6
I6
sssI16
(dp4057
I0
(dp4058
g4
(lp4059
I17
aI10
aI16
asg6
I2
ssI1
(dp4060
g4
(lp4061
I17
aI7
aI1
aI16
asg6
I3
ssI2
(dp4062
g4
(lp4063
I17
aI7
aI2
aI4
aI16
asg6
I4
ssI3
(dp4064
g4
(lp4065
I17
aI10
aI3
aI1
aI16
asg6
I4
ssI4
(dp4066
g4
(lp4067
I17
aI20
aI15
aI9
aI16
asg6
I4
sssI18
(lp4068
(dp4069
g4
(lp4070
I17
aI7
aI2
aI18
asg6
I3
sa(dp4071
g4
(lp4072
I17
aI13
aI2
aI18
asg6
I3
sa(dp4073
g4
(lp4074
I17
aI23
aI2
aI18
asg6
I3
sa(dp4075
g4
(lp4076
I17
aI10
aI12
aI2
aI18
asg6
I4
sa(dp4077
g4
(lp4078
I17
aI10
aI3
aI21
aI18
asg6
I4
sasI19
(lp4079
(dp4080
g4
(lp4081
I17
aI13
aI19
asg6
I2
sa(dp4082
g4
(lp4083
I17
aI7
aI19
asg6
I2
sa(dp4084
g4
(lp4085
I17
aI7
aI6
aI19
asg6
I3
sa(dp4086
g4
(lp4087
I17
aI13
aI2
aI7
aI19
asg6
I4
sa(dp4088
g4
(lp4089
I17
aI23
aI2
aI13
aI19
asg6
I4
sasI20
(lp4090
(dp4091
g4
(lp4092
I17
aI20
asg6
I1
sa(dp4093
g4
(lp4094
I17
aI10
aI12
aI22
aI20
asg6
I4
sa(dp4095
g4
(lp4096
I17
aI23
aI2
aI12
aI22
aI20
asg6
I5
sa(dp4097
g4
(lp4098
I17
aI10
aI16
aI9
aI15
aI20
asg6
I5
sa(dp4099
g4
(lp4100
I17
aI13
aI2
aI12
aI22
aI20
asg6
I5
sasI21
(lp4101
(dp4102
g4
(lp4103
I17
aI10
aI3
aI21
asg6
I3
sa(dp4104
g4
(lp4105
I17
aI23
aI2
aI18
aI21
asg6
I4
sa(dp4106
g4
(lp4107
I17
aI10
aI11
aI3
aI21
asg6
I4
sa(dp4108
g4
(lp4109
I17
aI13
aI2
aI18
aI21
asg6
I4
sa(dp4110
g4
(lp4111
I17
aI7
aI2
aI18
aI21
asg6
I4
sasI22
(lp4112
(dp4113
g4
(lp4114
I17
aI20
aI22
asg6
I2
sa(dp4115
g4
(lp4116
I17
aI10
aI12
aI22
asg6
I3
sa(dp4117
g4
(lp4118
I17
aI23
aI2
aI12
aI22
asg6
I4
sa(dp4119
g4
(lp4120
I17
aI13
aI2
aI12
aI22
asg6
I4
sa(dp4121
g4
(lp4122
I17
aI7
aI2
aI12
aI22
asg6
I4
sasI23
(lp4123
(dp4124
g4
(lp4125
I17
aI23
asg6
I1
sa(dp4126
g4
(lp4127
I17
aI7
aI2
aI23
asg6
I3
sa(dp4128
g4
(lp4129
I17
aI13
aI2
aI23
asg6
I3
sa(dp4130
g4
(lp4131
I17
aI10
aI12
aI2
aI23
asg6
I4
sa(dp4132
g4
(lp4133
I17
aI7
aI19
aI13
aI2
aI23
asg6
I5
sassI18
(dp4134
I1
(dp4135
I0
(dp4136
g4
(lp4137
I18
aI2
aI7
aI1
asg6
I3
ssI1
(dp4138
g4
(lp4139
I18
aI21
aI3
aI1
asg6
I3
ssI2
(dp4140
g4
(lp4141
I18
aI2
aI4
aI16
aI1
asg6
I4
ssI3
(dp4142
g4
(lp4143
I18
aI2
aI13
aI19
aI7
aI1
asg6
I5
ssI4
(dp4144
g4
(lp4145
I18
aI2
aI12
aI10
aI3
aI1
asg6
I5
sssI2
(dp4146
I0
(dp4147
g4
(lp4148
I18
aI2
asg6
I1
ssI1
(dp4149
g4
(lp4150
I18
aI21
aI3
aI1
aI7
aI2
asg6
I5
ssI2
(dp4151
g4
(lp4152
I18
aI21
aI3
aI10
aI12
aI2
asg6
I5
ssI3
(dp4153
g4
(lp4154
I18
aI21
aI3
aI14
aI13
aI2
asg6
I5
ssI4
(dp4155
g4
(lp4156
I18
aI21
aI3
aI10
aI17
aI7
aI2
asg6
I6
sssI3
(dp4157
I0
(dp4158
g4
(lp4159
I18
aI21
aI3
asg6
I2
ssI1
(dp4160
g4
(lp4161
I18
aI2
aI7
aI1
aI3
asg6
I4
ssI2
(dp4162
g4
(lp4163
I18
aI2
aI12
aI10
aI3
asg6
I4
ssI3
(dp4164
g4
(lp4165
I18
aI2
aI13
aI14
aI3
asg6
I4
ssI4
(dp4166
g4
(lp4167
I18
aI2
aI4
aI16
aI1
aI3
asg6
I5
sssI4
(dp4168
I0
(dp4169
g4
(lp4170
I18
aI2
aI4
asg6
I2
ssI1
(dp4171
g4
(lp4172
I18
aI21
aI3
aI1
aI16
aI4
asg6
I5
ssI2
(dp4173
g4
(lp4174
I18
aI21
aI3
aI10
aI16
aI4
asg6
I5
ssI3
(dp4175
g4
(lp4176
I18
aI2
aI7
aI1
aI16
aI4
asg6
I5
ssI4
(dp4177
g4
(lp4178
I18
aI2
aI12
aI10
aI16
aI4
asg6
I5
sssI5
(dp4179
I0
(dp4180
g4
(lp4181
I18
aI2
aI4
aI16
aI5
asg6
I4
ssI1
(dp4182
g4
(lp4183
I18
aI21
aI3
aI1
aI16
aI5
asg6
I5
ssI2
(dp4184
g4
(lp4185
I18
aI2
aI12
aI10
aI16
aI5
asg6
I5
ssI3
(dp4186
g4
(lp4187
I18
aI2
aI7
aI1
aI16
aI5
asg6
I5
ssI4
(dp4188
g4
(lp4189
I18
aI21
aI3
aI10
aI16
aI5
asg6
I5
sssI6
(dp4190
I0
(dp4191
g4
(lp4192
I18
aI2
aI7
aI6
asg6
I3
ssI1
(dp4193
g4
(lp4194
I18
aI2
aI13
aI19
aI6
asg6
I4
ssI2
(dp4195
g4
(lp4196
I18
aI2
aI7
aI19
aI6
asg6
I4
ssI3
(dp4197
g4
(lp4198
I18
aI21
aI3
aI1
aI7
aI6
asg6
I5
ssI4
(dp4199
g4
(lp4200
I18
aI2
aI13
aI19
aI7
aI6
asg6
I5
sssI7
(dp4201
I0
(dp4202
g4
(lp4203
I18
aI2
aI7
asg6
I2
ssI1
(dp4204
g4
(lp4205
I18
aI21
aI3
aI1
aI7
asg6
I4
ssI2
(dp4206
g4
(lp4207
I18
aI2
aI13
aI19
aI7
asg6
I4
ssI3
(dp4208
g4
(lp4209
I18
aI2
aI13
aI17
aI7
asg6
I4
ssI4
(dp4210
g4
(lp4211
I18
aI2
aI23
aI17
aI7
asg6
I4
sssI8
(dp4212
I0
(dp4213
g4
(lp4214
I18
aI2
aI4
aI16
aI9
aI8
asg6
I5
ssI1
(dp4215
g4
(lp4216
I18
aI2
aI4
aI16
aI5
aI8
asg6
I5
ssI2
(dp4217
g4
(lp4218
I18
aI21
aI3
aI1
aI16
aI9
aI8
asg6
I6
ssI3
(dp4219
g4
(lp4220
I18
aI21
aI3
aI1
aI16
aI5
aI8
asg6
I6
ssI4
(dp4221
g4
(lp4222
I18
aI2
aI12
aI10
aI16
aI9
aI8
asg6
I6
sssI9
(dp4223
I0
(dp4224
g4
(lp4225
I18
aI2
aI4
aI16
aI9
asg6
I4
ssI1
(dp4226
g4
(lp4227
I18
aI21
aI3
aI1
aI16
aI9
asg6
I5
ssI2
(dp4228
g4
(lp4229
I18
aI2
aI12
aI10
aI16
aI9
asg6
I5
ssI3
(dp4230
g4
(lp4231
I18
aI2
aI7
aI1
aI16
aI9
asg6
I5
ssI4
(dp4232
g4
(lp4233
I18
aI21
aI3
aI10
aI16
aI9
asg6
I5
sssI10
(dp4234
I0
(dp4235
g4
(lp4236
I18
aI2
aI12
aI10
asg6
I3
ssI1
(dp4237
g4
(lp4238
I18
aI21
aI3
aI10
asg6
I3
ssI2
(dp4239
g4
(lp4240
I18
aI21
aI3
aI11
aI10
asg6
I4
ssI3
(dp4241
g4
(lp4242
I18
aI2
aI4
aI16
aI10
asg6
I4
ssI4
(dp4243
g4
(lp4244
I18
aI2
aI7
aI17
aI10
asg6
I4
sssI11
(dp4245
I0
(dp4246
g4
(lp4247
I18
aI21
aI3
aI11
asg6
I3
ssI1
(dp4248
g4
(lp4249
I18
aI2
aI12
aI10
aI11
asg6
I4
ssI2
(dp4250
g4
(lp4251
I18
aI21
aI3
aI10
aI11
asg6
I4
ssI3
(dp4252
g4
(lp4253
I18
aI2
aI7
aI1
aI3
aI11
asg6
I5
ssI4
(dp4254
g4
(lp4255
I18
aI2
aI4
aI16
aI10
aI11
asg6
I5
sssI12
(dp4256
I0
(dp4257
g4
(lp4258
I18
aI2
aI12
asg6
I2
ssI1
(dp4259
g4
(lp4260
I18
aI21
aI3
aI10
aI12
asg6
I4
ssI2
(dp4261
g4
(lp4262
I18
aI21
aI3
aI11
aI10
aI12
asg6
I5
ssI3
(dp4263
g4
(lp4264
I18
aI2
aI4
aI16
aI10
aI12
asg6
I5
ssI4
(dp4265
g4
(lp4266
I18
aI2
aI7
aI17
aI10
aI12
asg6
I5
sssI13
(dp4267
I0
(dp4268
g4
(lp4269
I18
aI2
aI13
asg6
I2
ssI1
(dp4270
g4
(lp4271
I18
aI2
aI23
aI17
aI13
asg6
I4
ssI2
(dp4272
g4
(lp4273
I18
aI2
aI7
aI19
aI13
asg6
I4
ssI3
(dp4274
g4
(lp4275
I18
aI2
aI7
aI17
aI13
asg6
I4
ssI4
(dp4276
g4
(lp4277
I18
aI21
aI3
aI14
aI13
asg6
I4
sssI14
(dp4278
I0
(dp4279
g4
(lp4280
I18
aI21
aI3
aI14
asg6
I3
ssI1
(dp4281
g4
(lp4282
I18
aI2
aI13
aI14
asg6
I3
ssI2
(dp4283
g4
(lp4284
I18
aI2
aI7
aI1
aI3
aI14
asg6
I5
ssI3
(dp4285
g4
(lp4286
I18
aI2
aI7
aI17
aI13
aI14
asg6
I5
ssI4
(dp4287
g4
(lp4288
I18
aI2
aI12
aI10
aI3
aI14
asg6
I5
sssI15
(dp4289
I0
(dp4290
g4
(lp4291
I18
aI2
aI4
aI16
aI9
aI15
asg6
I5
ssI1
(dp4292
g4
(lp4293
I18
aI2
aI7
aI17
aI20
aI15
asg6
I5
ssI2
(dp4294
g4
(lp4295
I18
aI2
aI12
aI22
aI20
aI15
asg6
I5
ssI3
(dp4296
g4
(lp4297
I18
aI2
aI13
aI17
aI20
aI15
asg6
I5
ssI4
(dp4298
g4
(lp4299
I18
aI2
aI23
aI17
aI20
aI15
asg6
I5
sssI16
(dp4300
I0
(dp4301
g4
(lp4302
I18
aI2
aI4
aI16
asg6
I3
ssI1
(dp4303
g4
(lp4304
I18
aI21
aI3
aI1
aI16
asg6
I4
ssI2
(dp4305
g4
(lp4306
I18
aI21
aI3
aI10
aI16
asg6
I4
ssI3
(dp4307
g4
(lp4308
I18
aI2
aI7
aI1
aI16
asg6
I4
ssI4
(dp4309
g4
(lp4310
I18
aI2
aI12
aI10
aI16
asg6
I4
sssI17
(dp4311
I0
(dp4312
g4
(lp4313
I18
aI2
aI7
aI17
asg6
I3
ssI1
(dp4314
g4
(lp4315
I18
aI2
aI13
aI17
asg6
I3
ssI2
(dp4316
g4
(lp4317
I18
aI2
aI23
aI17
asg6
I3
ssI3
(dp4318
g4
(lp4319
I18
aI2
aI12
aI10
aI17
asg6
I4
ssI4
(dp4320
g4
(lp4321
I18
aI21
aI3
aI10
aI17
asg6
I4
sssI19
(lp4322
(dp4323
g4
(lp4324
I18
aI2
aI7
aI19
asg6
I3
sa(dp4325
g4
(lp4326
I18
aI2
aI13
aI19
asg6
I3
sa(dp4327
g4
(lp4328
I18
aI2
aI7
aI6
aI19
asg6
I4
sa(dp4329
g4
(lp4330
I18
aI21
aI3
aI14
aI13
aI19
asg6
I5
sa(dp4331
g4
(lp4332
I18
aI2
aI23
aI17
aI13
aI19
asg6
I5
sasI20
(lp4333
(dp4334
g4
(lp4335
I18
aI2
aI23
aI17
aI20
asg6
I4
sa(dp4336
g4
(lp4337
I18
aI2
aI13
aI17
aI20
asg6
I4
sa(dp4338
g4
(lp4339
I18
aI2
aI7
aI17
aI20
asg6
I4
sa(dp4340
g4
(lp4341
I18
aI2
aI12
aI22
aI20
asg6
I4
sa(dp4342
g4
(lp4343
I18
aI21
aI3
aI10
aI17
aI20
asg6
I5
sasI21
(lp4344
(dp4345
g4
(lp4346
I18
aI21
asg6
I1
sa(dp4347
g4
(lp4348
I18
aI2
aI7
aI1
aI3
aI21
asg6
I5
sa(dp4349
g4
(lp4350
I18
aI2
aI12
aI10
aI3
aI21
asg6
I5
sa(dp4351
g4
(lp4352
I18
aI2
aI13
aI14
aI3
aI21
asg6
I5
sa(dp4353
g4
(lp4354
I18
aI2
aI7
aI17
aI10
aI3
aI21
asg6
I6
sasI22
(lp4355
(dp4356
g4
(lp4357
I18
aI2
aI12
aI22
asg6
I3
sa(dp4358
g4
(lp4359
I18
aI21
aI3
aI10
aI12
aI22
asg6
I5
sa(dp4360
g4
(lp4361
I18
aI2
aI23
aI17
aI20
aI22
asg6
I5
sa(dp4362
g4
(lp4363
I18
aI2
aI7
aI17
aI20
aI22
asg6
I5
sa(dp4364
g4
(lp4365
I18
aI2
aI13
aI17
aI20
aI22
asg6
I5
sasI23
(lp4366
(dp4367
g4
(lp4368
I18
aI2
aI23
asg6
I2
sa(dp4369
g4
(lp4370
I18
aI2
aI13
aI17
aI23
asg6
I4
sa(dp4371
g4
(lp4372
I18
aI2
aI7
aI17
aI23
asg6
I4
sa(dp4373
g4
(lp4374
I18
aI21
aI3
aI10
aI17
aI23
asg6
I5
sa(dp4375
g4
(lp4376
I18
aI2
aI12
aI10
aI17
aI23
asg6
I5
sassI19
(dp4377
I1
(dp4378
I0
(dp4379
g4
(lp4380
I19
aI7
aI1
asg6
I2
ssI1
(dp4381
g4
(lp4382
I19
aI6
aI7
aI1
asg6
I3
ssI2
(dp4383
g4
(lp4384
I19
aI13
aI14
aI3
aI1
asg6
I4
ssI3
(dp4385
g4
(lp4386
I19
aI13
aI2
aI7
aI1
asg6
I4
ssI4
(dp4387
g4
(lp4388
I19
aI13
aI17
aI7
aI1
asg6
I4
sssI2
(dp4389
I0
(dp4390
g4
(lp4391
I19
aI13
aI2
asg6
I2
ssI1
(dp4392
g4
(lp4393
I19
aI7
aI2
asg6
I2
ssI2
(dp4394
g4
(lp4395
I19
aI6
aI7
aI2
asg6
I3
ssI3
(dp4396
g4
(lp4397
I19
aI7
aI17
aI13
aI2
asg6
I4
ssI4
(dp4398
g4
(lp4399
I19
aI13
aI17
aI23
aI2
asg6
I4
sssI3
(dp4400
I0
(dp4401
g4
(lp4402
I19
aI13
aI14
aI3
asg6
I3
ssI1
(dp4403
g4
(lp4404
I19
aI7
aI1
aI3
asg6
I3
ssI2
(dp4405
g4
(lp4406
I19
aI13
aI17
aI10
aI3
asg6
I4
ssI3
(dp4407
g4
(lp4408
I19
aI6
aI7
aI1
aI3
asg6
I4
ssI4
(dp4409
g4
(lp4410
I19
aI7
aI17
aI10
aI3
asg6
I4
sssI4
(dp4411
I0
(dp4412
g4
(lp4413
I19
aI7
aI2
aI4
asg6
I3
ssI1
(dp4414
g4
(lp4415
I19
aI13
aI2
aI4
asg6
I3
ssI2
(dp4416
g4
(lp4417
I19
aI7
aI1
aI16
aI4
asg6
I4
ssI3
(dp4418
g4
(lp4419
I19
aI6
aI7
aI2
aI4
asg6
I4
ssI4
(dp4420
g4
(lp4421
I19
aI13
aI17
aI23
aI2
aI4
asg6
I5
sssI5
(dp4422
I0
(dp4423
g4
(lp4424
I19
aI7
aI1
aI16
aI5
asg6
I4
ssI1
(dp4425
g4
(lp4426
I19
aI13
aI17
aI10
aI16
aI5
asg6
I5
ssI2
(dp4427
g4
(lp4428
I19
aI6
aI7
aI1
aI16
aI5
asg6
I5
ssI3
(dp4429
g4
(lp4430
I19
aI7
aI2
aI4
aI16
aI5
asg6
I5
ssI4
(dp4431
g4
(lp4432
I19
aI7
aI17
aI10
aI16
aI5
asg6
I5
sssI6
(dp4433
I0
(dp4434
g4
(lp4435
I19
aI6
asg6
I1
ssI1
(dp4436
g4
(lp4437
I19
aI7
aI6
asg6
I2
ssI2
(dp4438
g4
(lp4439
I19
aI13
aI17
aI7
aI6
asg6
I4
ssI3
(dp4440
g4
(lp4441
I19
aI13
aI2
aI7
aI6
asg6
I4
ssI4
(dp4442
g4
(lp4443
I19
aI13
aI2
aI23
aI17
aI7
aI6
asg6
I6
sssI7
(dp4444
I0
(dp4445
g4
(lp4446
I19
aI7
asg6
I1
ssI1
(dp4447
g4
(lp4448
I19
aI6
aI7
asg6
I2
ssI2
(dp4449
g4
(lp4450
I19
aI13
aI17
aI7
asg6
I3
ssI3
(dp4451
g4
(lp4452
I19
aI13
aI2
aI7
asg6
I3
ssI4
(dp4453
g4
(lp4454
I19
aI13
aI2
aI23
aI17
aI7
asg6
I5
sssI8
(dp4455
I0
(dp4456
g4
(lp4457
I19
aI7
aI1
aI16
aI9
aI8
asg6
I5
ssI1
(dp4458
g4
(lp4459
I19
aI7
aI1
aI16
aI5
aI8
asg6
I5
ssI2
(dp4460
g4
(lp4461
I19
aI13
aI17
aI20
aI15
aI9
aI8
asg6
I6
ssI3
(dp4462
g4
(lp4463
I19
aI13
aI17
aI10
aI16
aI9
aI8
asg6
I6
ssI4
(dp4464
g4
(lp4465
I19
aI6
aI7
aI1
aI16
aI9
aI8
asg6
I6
sssI9
(dp4466
I0
(dp4467
g4
(lp4468
I19
aI7
aI1
aI16
aI9
asg6
I4
ssI1
(dp4469
g4
(lp4470
I19
aI13
aI17
aI20
aI15
aI9
asg6
I5
ssI2
(dp4471
g4
(lp4472
I19
aI13
aI17
aI10
aI16
aI9
asg6
I5
ssI3
(dp4473
g4
(lp4474
I19
aI6
aI7
aI1
aI16
aI9
asg6
I5
ssI4
(dp4475
g4
(lp4476
I19
aI7
aI17
aI20
aI15
aI9
asg6
I5
sssI10
(dp4477
I0
(dp4478
g4
(lp4479
I19
aI13
aI17
aI10
asg6
I3
ssI1
(dp4480
g4
(lp4481
I19
aI7
aI17
aI10
asg6
I3
ssI2
(dp4482
g4
(lp4483
I19
aI7
aI1
aI16
aI10
asg6
I4
ssI3
(dp4484
g4
(lp4485
I19
aI6
aI7
aI17
aI10
asg6
I4
ssI4
(dp4486
g4
(lp4487
I19
aI13
aI2
aI12
aI10
asg6
I4
sssI11
(dp4488
I0
(dp4489
g4
(lp4490
I19
aI13
aI17
aI10
aI11
asg6
I4
ssI1
(dp4491
g4
(lp4492
I19
aI13
aI14
aI3
aI11
asg6
I4
ssI2
(dp4493
g4
(lp4494
I19
aI7
aI17
aI10
aI11
asg6
I4
ssI3
(dp4495
g4
(lp4496
I19
aI7
aI1
aI3
aI11
asg6
I4
ssI4
(dp4497
g4
(lp4498
I19
aI13
aI2
aI12
aI10
aI11
asg6
I5
sssI12
(dp4499
I0
(dp4500
g4
(lp4501
I19
aI7
aI2
aI12
asg6
I3
ssI1
(dp4502
g4
(lp4503
I19
aI13
aI2
aI12
asg6
I3
ssI2
(dp4504
g4
(lp4505
I19
aI13
aI17
aI10
aI12
asg6
I4
ssI3
(dp4506
g4
(lp4507
I19
aI6
aI7
aI2
aI12
asg6
I4
ssI4
(dp4508
g4
(lp4509
I19
aI7
aI17
aI10
aI12
asg6
I4
sssI13
(dp4510
I0
(dp4511
g4
(lp4512
I19
aI13
asg6
I1
ssI1
(dp4513
g4
(lp4514
I19
aI7
aI2
aI13
asg6
I3
ssI2
(dp4515
g4
(lp4516
I19
aI7
aI17
aI13
asg6
I3
ssI3
(dp4517
g4
(lp4518
I19
aI6
aI7
aI2
aI13
asg6
I4
ssI4
(dp4519
g4
(lp4520
I19
aI6
aI7
aI17
aI13
asg6
I4
sssI14
(dp4521
I0
(dp4522
g4
(lp4523
I19
aI13
aI14
asg6
I2
ssI1
(dp4524
g4
(lp4525
I19
aI7
aI1
aI3
aI14
asg6
I4
ssI2
(dp4526
g4
(lp4527
I19
aI7
aI17
aI13
aI14
asg6
I4
ssI3
(dp4528
g4
(lp4529
I19
aI7
aI2
aI13
aI14
asg6
I4
ssI4
(dp4530
g4
(lp4531
I19
aI13
aI17
aI10
aI3
aI14
asg6
I5
sssI15
(dp4532
I0
(dp4533
g4
(lp4534
I19
aI13
aI17
aI20
aI15
asg6
I4
ssI1
(dp4535
g4
(lp4536
I19
aI7
aI17
aI20
aI15
asg6
I4
ssI2
(dp4537
g4
(lp4538
I19
aI7
aI1
aI16
aI9
aI15
asg6
I5
ssI3
(dp4539
g4
(lp4540
I19
aI6
aI7
aI17
aI20
aI15
asg6
I5
ssI4
(dp4541
g4
(lp4542
I19
aI7
aI2
aI12
aI22
aI20
aI15
asg6
I6
sssI16
(dp4543
I0
(dp4544
g4
(lp4545
I19
aI7
aI1
aI16
asg6
I3
ssI1
(dp4546
g4
(lp4547
I19
aI13
aI17
aI10
aI16
asg6
I4
ssI2
(dp4548
g4
(lp4549
I19
aI6
aI7
aI1
aI16
asg6
I4
ssI3
(dp4550
g4
(lp4551
I19
aI7
aI2
aI4
aI16
asg6
I4
ssI4
(dp4552
g4
(lp4553
I19
aI7
aI17
aI10
aI16
asg6
I4
sssI17
(dp4554
I0
(dp4555
g4
(lp4556
I19
aI13
aI17
asg6
I2
ssI1
(dp4557
g4
(lp4558
I19
aI7
aI17
asg6
I2
ssI2
(dp4559
g4
(lp4560
I19
aI6
aI7
aI17
asg6
I3
ssI3
(dp4561
g4
(lp4562
I19
aI7
aI2
aI13
aI17
asg6
I4
ssI4
(dp4563
g4
(lp4564
I19
aI13
aI2
aI23
aI17
asg6
I4
sssI18
(dp4565
I0
(dp4566
g4
(lp4567
I19
aI7
aI2
aI18
asg6
I3
ssI1
(dp4568
g4
(lp4569
I19
aI13
aI2
aI18
asg6
I3
ssI2
(dp4570
g4
(lp4571
I19
aI6
aI7
aI2
aI18
asg6
I4
ssI3
(dp4572
g4
(lp4573
I19
aI13
aI14
aI3
aI21
aI18
asg6
I5
ssI4
(dp4574
g4
(lp4575
I19
aI13
aI17
aI23
aI2
aI18
asg6
I5
sssI20
(lp4576
(dp4577
g4
(lp4578
I19
aI13
aI17
aI20
asg6
I3
sa(dp4579
g4
(lp4580
I19
aI7
aI17
aI20
asg6
I3
sa(dp4581
g4
(lp4582
I19
aI6
aI7
aI17
aI20
asg6
I4
sa(dp4583
g4
(lp4584
I19
aI13
aI2
aI23
aI17
aI20
asg6
I5
sa(dp4585
g4
(lp4586
I19
aI7
aI2
aI23
aI17
aI20
asg6
I5
sasI21
(lp4587
(dp4588
g4
(lp4589
I19
aI13
aI2
aI18
aI21
asg6
I4
sa(dp4590
g4
(lp4591
I19
aI7
aI2
aI18
aI21
asg6
I4
sa(dp4592
g4
(lp4593
I19
aI13
aI14
aI3
aI21
asg6
I4
sa(dp4594
g4
(lp4595
I19
aI7
aI1
aI3
aI21
asg6
I4
sa(dp4596
g4
(lp4597
I19
aI6
aI7
aI2
aI18
aI21
asg6
I5
sasI22
(lp4598
(dp4599
g4
(lp4600
I19
aI13
aI17
aI20
aI22
asg6
I4
sa(dp4601
g4
(lp4602
I19
aI7
aI17
aI20
aI22
asg6
I4
sa(dp4603
g4
(lp4604
I19
aI13
aI2
aI12
aI22
asg6
I4
sa(dp4605
g4
(lp4606
I19
aI7
aI2
aI12
aI22
asg6
I4
sa(dp4607
g4
(lp4608
I19
aI13
aI17
aI10
aI12
aI22
asg6
I5
sasI23
(lp4609
(dp4610
g4
(lp4611
I19
aI13
aI17
aI23
asg6
I3
sa(dp4612
g4
(lp4613
I19
aI7
aI2
aI23
asg6
I3
sa(dp4614
g4
(lp4615
I19
aI13
aI2
aI23
asg6
I3
sa(dp4616
g4
(lp4617
I19
aI7
aI17
aI23
asg6
I3
sa(dp4618
g4
(lp4619
I19
aI6
aI7
aI17
aI23
asg6
I4
sassI20
(dp4620
I1
(dp4621
I0
(dp4622
g4
(lp4623
I20
aI17
aI7
aI1
asg6
I3
ssI1
(dp4624
g4
(lp4625
I20
aI17
aI10
aI16
aI1
asg6
I4
ssI2
(dp4626
g4
(lp4627
I20
aI17
aI10
aI3
aI1
asg6
I4
ssI3
(dp4628
g4
(lp4629
I20
aI15
aI9
aI16
aI1
asg6
I4
ssI4
(dp4630
g4
(lp4631
I20
aI17
aI23
aI2
aI7
aI1
asg6
I5
sssI2
(dp4632
I0
(dp4633
g4
(lp4634
I20
aI17
aI23
aI2
asg6
I3
ssI1
(dp4635
g4
(lp4636
I20
aI17
aI13
aI2
asg6
I3
ssI2
(dp4637
g4
(lp4638
I20
aI17
aI7
aI2
asg6
I3
ssI3
(dp4639
g4
(lp4640
I20
aI22
aI12
aI2
asg6
I3
ssI4
(dp4641
g4
(lp4642
I20
aI17
aI10
aI12
aI2
asg6
I4
sssI3
(dp4643
I0
(dp4644
g4
(lp4645
I20
aI17
aI10
aI3
asg6
I3
ssI1
(dp4646
g4
(lp4647
I20
aI17
aI7
aI1
aI3
asg6
I4
ssI2
(dp4648
g4
(lp4649
I20
aI22
aI12
aI10
aI3
asg6
I4
ssI3
(dp4650
g4
(lp4651
I20
aI17
aI10
aI11
aI3
asg6
I4
ssI4
(dp4652
g4
(lp4653
I20
aI17
aI13
aI14
aI3
asg6
I4
sssI4
(dp4654
I0
(dp4655
g4
(lp4656
I20
aI17
aI10
aI16
aI4
asg6
I4
ssI1
(dp4657
g4
(lp4658
I20
aI17
aI23
aI2
aI4
asg6
I4
ssI2
(dp4659
g4
(lp4660
I20
aI15
aI9
aI16
aI4
asg6
I4
ssI3
(dp4661
g4
(lp4662
I20
aI17
aI13
aI2
aI4
asg6
I4
ssI4
(dp4663
g4
(lp4664
I20
aI17
aI7
aI2
aI4
asg6
I4
sssI5
(dp4665
I0
(dp4666
g4
(lp4667
I20
aI17
aI10
aI16
aI5
asg6
I4
ssI1
(dp4668
g4
(lp4669
I20
aI15
aI9
aI8
aI5
asg6
I4
ssI2
(dp4670
g4
(lp4671
I20
aI15
aI9
aI16
aI5
asg6
I4
ssI3
(dp4672
g4
(lp4673
I20
aI22
aI12
aI10
aI16
aI5
asg6
I5
ssI4
(dp4674
g4
(lp4675
I20
aI17
aI7
aI1
aI16
aI5
asg6
I5
sssI6
(dp4676
I0
(dp4677
g4
(lp4678
I20
aI17
aI7
aI6
asg6
I3
ssI1
(dp4679
g4
(lp4680
I20
aI17
aI13
aI19
aI6
asg6
I4
ssI2
(dp4681
g4
(lp4682
I20
aI17
aI7
aI19
aI6
asg6
I4
ssI3
(dp4683
g4
(lp4684
I20
aI17
aI23
aI2
aI7
aI6
asg6
I5
ssI4
(dp4685
g4
(lp4686
I20
aI17
aI13
aI19
aI7
aI6
asg6
I5
sssI7
(dp4687
I0
(dp4688
g4
(lp4689
I20
aI17
aI7
asg6
I2
ssI1
(dp4690
g4
(lp4691
I20
aI22
aI12
aI2
aI7
asg6
I4
ssI2
(dp4692
g4
(lp4693
I20
aI17
aI13
aI19
aI7
asg6
I4
ssI3
(dp4694
g4
(lp4695
I20
aI17
aI23
aI2
aI7
asg6
I4
ssI4
(dp4696
g4
(lp4697
I20
aI17
aI13
aI2
aI7
asg6
I4
sssI8
(dp4698
I0
(dp4699
g4
(lp4700
I20
aI15
aI9
aI8
asg6
I3
ssI1
(dp4701
g4
(lp4702
I20
aI17
aI10
aI16
aI5
aI8
asg6
I5
ssI2
(dp4703
g4
(lp4704
I20
aI17
aI10
aI16
aI9
aI8
asg6
I5
ssI3
(dp4705
g4
(lp4706
I20
aI15
aI9
aI16
aI5
aI8
asg6
I5
ssI4
(dp4707
g4
(lp4708
I20
aI22
aI12
aI10
aI16
aI5
aI8
asg6
I6
sssI9
(dp4709
I0
(dp4710
g4
(lp4711
I20
aI15
aI9
asg6
I2
ssI1
(dp4712
g4
(lp4713
I20
aI17
aI10
aI16
aI9
asg6
I4
ssI2
(dp4714
g4
(lp4715
I20
aI17
aI7
aI1
aI16
aI9
asg6
I5
ssI3
(dp4716
g4
(lp4717
I20
aI22
aI12
aI10
aI16
aI9
asg6
I5
ssI4
(dp4718
g4
(lp4719
I20
aI17
aI10
aI16
aI5
aI8
aI9
asg6
I6
sssI10
(dp4720
I0
(dp4721
g4
(lp4722
I20
aI17
aI10
asg6
I2
ssI1
(dp4723
g4
(lp4724
I20
aI22
aI12
aI10
asg6
I3
ssI2
(dp4725
g4
(lp4726
I20
aI15
aI9
aI16
aI10
asg6
I4
ssI3
(dp4727
g4
(lp4728
I20
aI17
aI23
aI2
aI12
aI10
asg6
I5
ssI4
(dp4729
g4
(lp4730
I20
aI17
aI13
aI14
aI3
aI10
asg6
I5
sssI11
(dp4731
I0
(dp4732
g4
(lp4733
I20
aI17
aI10
aI11
asg6
I3
ssI1
(dp4734
g4
(lp4735
I20
aI17
aI10
aI3
aI11
asg6
I4
ssI2
(dp4736
g4
(lp4737
I20
aI22
aI12
aI10
aI11
asg6
I4
ssI3
(dp4738
g4
(lp4739
I20
aI17
aI13
aI14
aI3
aI11
asg6
I5
ssI4
(dp4740
g4
(lp4741
I20
aI22
aI12
aI10
aI3
aI11
asg6
I5
sssI12
(dp4742
I0
(dp4743
g4
(lp4744
I20
aI22
aI12
asg6
I2
ssI1
(dp4745
g4
(lp4746
I20
aI17
aI10
aI12
asg6
I3
ssI2
(dp4747
g4
(lp4748
I20
aI17
aI23
aI2
aI12
asg6
I4
ssI3
(dp4749
g4
(lp4750
I20
aI17
aI13
aI2
aI12
asg6
I4
ssI4
(dp4751
g4
(lp4752
I20
aI17
aI7
aI2
aI12
asg6
I4
sssI13
(dp4753
I0
(dp4754
g4
(lp4755
I20
aI17
aI13
asg6
I2
ssI1
(dp4756
g4
(lp4757
I20
aI17
aI23
aI2
aI13
asg6
I4
ssI2
(dp4758
g4
(lp4759
I20
aI17
aI7
aI19
aI13
asg6
I4
ssI3
(dp4760
g4
(lp4761
I20
aI17
aI7
aI2
aI13
asg6
I4
ssI4
(dp4762
g4
(lp4763
I20
aI22
aI12
aI2
aI13
asg6
I4
sssI14
(dp4764
I0
(dp4765
g4
(lp4766
I20
aI17
aI13
aI14
asg6
I3
ssI1
(dp4767
g4
(lp4768
I20
aI17
aI10
aI3
aI14
asg6
I4
ssI2
(dp4769
g4
(lp4770
I20
aI17
aI23
aI2
aI13
aI14
asg6
I5
ssI3
(dp4771
g4
(lp4772
I20
aI17
aI10
aI11
aI3
aI14
asg6
I5
ssI4
(dp4773
g4
(lp4774
I20
aI22
aI12
aI10
aI3
aI14
asg6
I5
sssI15
(dp4775
I0
(dp4776
g4
(lp4777
I20
aI15
asg6
I1
ssI1
(dp4778
g4
(lp4779
I20
aI17
aI10
aI16
aI9
aI15
asg6
I5
ssI2
(dp4780
g4
(lp4781
I20
aI17
aI7
aI1
aI16
aI9
aI15
asg6
I6
ssI3
(dp4782
g4
(lp4783
I20
aI22
aI12
aI10
aI16
aI9
aI15
asg6
I6
ssI4
(dp4784
g4
(lp4785
I20
aI17
aI10
aI16
aI5
aI8
aI9
aI15
asg6
I7
sssI16
(dp4786
I0
(dp4787
g4
(lp4788
I20
aI17
aI10
aI16
asg6
I3
ssI1
(dp4789
g4
(lp4790
I20
aI15
aI9
aI16
asg6
I3
ssI2
(dp4791
g4
(lp4792
I20
aI22
aI12
aI10
aI16
asg6
I4
ssI3
(dp4793
g4
(lp4794
I20
aI17
aI7
aI1
aI16
asg6
I4
ssI4
(dp4795
g4
(lp4796
I20
aI17
aI23
aI2
aI4
aI16
asg6
I5
sssI17
(dp4797
I0
(dp4798
g4
(lp4799
I20
aI17
asg6
I1
ssI1
(dp4800
g4
(lp4801
I20
aI22
aI12
aI10
aI17
asg6
I4
ssI2
(dp4802
g4
(lp4803
I20
aI22
aI12
aI2
aI23
aI17
asg6
I5
ssI3
(dp4804
g4
(lp4805
I20
aI15
aI9
aI16
aI10
aI17
asg6
I5
ssI4
(dp4806
g4
(lp4807
I20
aI22
aI12
aI2
aI13
aI17
asg6
I5
sssI18
(dp4808
I0
(dp4809
g4
(lp4810
I20
aI17
aI23
aI2
aI18
asg6
I4
ssI1
(dp4811
g4
(lp4812
I20
aI17
aI13
aI2
aI18
asg6
I4
ssI2
(dp4813
g4
(lp4814
I20
aI17
aI7
aI2
aI18
asg6
I4
ssI3
(dp4815
g4
(lp4816
I20
aI22
aI12
aI2
aI18
asg6
I4
ssI4
(dp4817
g4
(lp4818
I20
aI17
aI10
aI3
aI21
aI18
asg6
I5
sssI19
(dp4819
I0
(dp4820
g4
(lp4821
I20
aI17
aI13
aI19
asg6
I3
ssI1
(dp4822
g4
(lp4823
I20
aI17
aI7
aI19
asg6
I3
ssI2
(dp4824
g4
(lp4825
I20
aI17
aI7
aI6
aI19
asg6
I4
ssI3
(dp4826
g4
(lp4827
I20
aI17
aI23
aI2
aI13
aI19
asg6
I5
ssI4
(dp4828
g4
(lp4829
I20
aI17
aI23
aI2
aI7
aI19
asg6
I5
sssI21
(lp4830
(dp4831
g4
(lp4832
I20
aI17
aI10
aI3
aI21
asg6
I4
sa(dp4833
g4
(lp4834
I20
aI22
aI12
aI2
aI18
aI21
asg6
I5
sa(dp4835
g4
(lp4836
I20
aI17
aI23
aI2
aI18
aI21
asg6
I5
sa(dp4837
g4
(lp4838
I20
aI17
aI10
aI11
aI3
aI21
asg6
I5
sa(dp4839
g4
(lp4840
I20
aI22
aI12
aI10
aI3
aI21
asg6
I5
sasI22
(lp4841
(dp4842
g4
(lp4843
I20
aI22
asg6
I1
sa(dp4844
g4
(lp4845
I20
aI17
aI10
aI12
aI22
asg6
I4
sa(dp4846
g4
(lp4847
I20
aI17
aI7
aI2
aI12
aI22
asg6
I5
sa(dp4848
g4
(lp4849
I20
aI17
aI23
aI2
aI12
aI22
asg6
I5
sa(dp4850
g4
(lp4851
I20
aI17
aI13
aI2
aI12
aI22
asg6
I5
sasI23
(lp4852
(dp4853
g4
(lp4854
I20
aI17
aI23
asg6
I2
sa(dp4855
g4
(lp4856
I20
aI22
aI12
aI2
aI23
asg6
I4
sa(dp4857
g4
(lp4858
I20
aI17
aI7
aI2
aI23
asg6
I4
sa(dp4859
g4
(lp4860
I20
aI17
aI13
aI2
aI23
asg6
I4
sa(dp4861
g4
(lp4862
I20
aI22
aI12
aI10
aI17
aI23
asg6
I5
sassI21
(dp4863
I1
(dp4864
I0
(dp4865
g4
(lp4866
I21
aI3
aI1
asg6
I2
ssI1
(dp4867
g4
(lp4868
I21
aI18
aI2
aI7
aI1
asg6
I4
ssI2
(dp4869
g4
(lp4870
I21
aI3
aI10
aI16
aI1
asg6
I4
ssI3
(dp4871
g4
(lp4872
I21
aI3
aI10
aI17
aI7
aI1
asg6
I5
ssI4
(dp4873
g4
(lp4874
I21
aI18
aI2
aI4
aI16
aI1
asg6
I5
sssI2
(dp4875
I0
(dp4876
g4
(lp4877
I21
aI18
aI2
asg6
I2
ssI1
(dp4878
g4
(lp4879
I21
aI3
aI1
aI7
aI2
asg6
I4
ssI2
(dp4880
g4
(lp4881
I21
aI3
aI10
aI12
aI2
asg6
I4
ssI3
(dp4882
g4
(lp4883
I21
aI3
aI14
aI13
aI2
asg6
I4
ssI4
(dp4884
g4
(lp4885
I21
aI3
aI10
aI17
aI7
aI2
asg6
I5
sssI3
(dp4886
I0
(dp4887
g4
(lp4888
I21
aI3
asg6
I1
ssI1
(dp4889
g4
(lp4890
I21
aI18
aI2
aI7
aI1
aI3
asg6
I5
ssI2
(dp4891
g4
(lp4892
I21
aI18
aI2
aI12
aI10
aI3
asg6
I5
ssI3
(dp4893
g4
(lp4894
I21
aI18
aI2
aI13
aI14
aI3
asg6
I5
ssI4
(dp4895
g4
(lp4896
I21
aI18
aI2
aI4
aI16
aI1
aI3
asg6
I6
sssI4
(dp4897
I0
(dp4898
g4
(lp4899
I21
aI18
aI2
aI4
asg6
I3
ssI1
(dp4900
g4
(lp4901
I21
aI3
aI1
aI16
aI4
asg6
I4
ssI2
(dp4902
g4
(lp4903
I21
aI3
aI10
aI16
aI4
asg6
I4
ssI3
(dp4904
g4
(lp4905
I21
aI3
aI1
aI7
aI2
aI4
asg6
I5
ssI4
(dp4906
g4
(lp4907
I21
aI3
aI11
aI10
aI16
aI4
asg6
I5
sssI5
(dp4908
I0
(dp4909
g4
(lp4910
I21
aI3
aI1
aI16
aI5
asg6
I4
ssI1
(dp4911
g4
(lp4912
I21
aI3
aI10
aI16
aI5
asg6
I4
ssI2
(dp4913
g4
(lp4914
I21
aI18
aI2
aI4
aI16
aI5
asg6
I5
ssI3
(dp4915
g4
(lp4916
I21
aI3
aI11
aI10
aI16
aI5
asg6
I5
ssI4
(dp4917
g4
(lp4918
I21
aI3
aI1
aI16
aI9
aI8
aI5
asg6
I6
sssI6
(dp4919
I0
(dp4920
g4
(lp4921
I21
aI18
aI2
aI7
aI6
asg6
I4
ssI1
(dp4922
g4
(lp4923
I21
aI3
aI1
aI7
aI6
asg6
I4
ssI2
(dp4924
g4
(lp4925
I21
aI18
aI2
aI13
aI19
aI6
asg6
I5
ssI3
(dp4926
g4
(lp4927
I21
aI3
aI10
aI17
aI7
aI6
asg6
I5
ssI4
(dp4928
g4
(lp4929
I21
aI18
aI2
aI7
aI19
aI6
asg6
I5
sssI7
(dp4930
I0
(dp4931
g4
(lp4932
I21
aI18
aI2
aI7
asg6
I3
ssI1
(dp4933
g4
(lp4934
I21
aI3
aI1
aI7
asg6
I3
ssI2
(dp4935
g4
(lp4936
I21
aI3
aI10
aI17
aI7
asg6
I4
ssI3
(dp4937
g4
(lp4938
I21
aI3
aI10
aI12
aI2
aI7
asg6
I5
ssI4
(dp4939
g4
(lp4940
I21
aI3
aI10
aI16
aI1
aI7
asg6
I5
sssI8
(dp4941
I0
(dp4942
g4
(lp4943
I21
aI3
aI1
aI16
aI9
aI8
asg6
I5
ssI1
(dp4944
g4
(lp4945
I21
aI3
aI1
aI16
aI5
aI8
asg6
I5
ssI2
(dp4946
g4
(lp4947
I21
aI3
aI10
aI16
aI9
aI8
asg6
I5
ssI3
(dp4948
g4
(lp4949
I21
aI3
aI10
aI16
aI5
aI8
asg6
I5
ssI4
(dp4950
g4
(lp4951
I21
aI18
aI2
aI4
aI16
aI9
aI8
asg6
I6
sssI9
(dp4952
I0
(dp4953
g4
(lp4954
I21
aI3
aI1
aI16
aI9
asg6
I4
ssI1
(dp4955
g4
(lp4956
I21
aI3
aI10
aI16
aI9
asg6
I4
ssI2
(dp4957
g4
(lp4958
I21
aI18
aI2
aI4
aI16
aI9
asg6
I5
ssI3
(dp4959
g4
(lp4960
I21
aI3
aI11
aI10
aI16
aI9
asg6
I5
ssI4
(dp4961
g4
(lp4962
I21
aI3
aI1
aI16
aI5
aI8
aI9
asg6
I6
sssI10
(dp4963
I0
(dp4964
g4
(lp4965
I21
aI3
aI10
asg6
I2
ssI1
(dp4966
g4
(lp4967
I21
aI3
aI11
aI10
asg6
I3
ssI2
(dp4968
g4
(lp4969
I21
aI3
aI1
aI16
aI10
asg6
I4
ssI3
(dp4970
g4
(lp4971
I21
aI18
aI2
aI12
aI10
asg6
I4
ssI4
(dp4972
g4
(lp4973
I21
aI18
aI2
aI4
aI16
aI10
asg6
I5
sssI11
(dp4974
I0
(dp4975
g4
(lp4976
I21
aI3
aI11
asg6
I2
ssI1
(dp4977
g4
(lp4978
I21
aI3
aI10
aI11
asg6
I3
ssI2
(dp4979
g4
(lp4980
I21
aI3
aI1
aI16
aI10
aI11
asg6
I5
ssI3
(dp4981
g4
(lp4982
I21
aI18
aI2
aI12
aI10
aI11
asg6
I5
ssI4
(dp4983
g4
(lp4984
I21
aI18
aI2
aI7
aI1
aI3
aI11
asg6
I6
sssI12
(dp4985
I0
(dp4986
g4
(lp4987
I21
aI18
aI2
aI12
asg6
I3
ssI1
(dp4988
g4
(lp4989
I21
aI3
aI10
aI12
asg6
I3
ssI2
(dp4990
g4
(lp4991
I21
aI3
aI11
aI10
aI12
asg6
I4
ssI3
(dp4992
g4
(lp4993
I21
aI3
aI1
aI7
aI2
aI12
asg6
I5
ssI4
(dp4994
g4
(lp4995
I21
aI3
aI1
aI16
aI10
aI12
asg6
I5
sssI13
(dp4996
I0
(dp4997
g4
(lp4998
I21
aI18
aI2
aI13
asg6
I3
ssI1
(dp4999
g4
(lp5000
I21
aI3
aI14
aI13
asg6
I3
ssI2
(dp5001
g4
(lp5002
I21
aI3
aI10
aI17
aI13
asg6
I4
ssI3
(dp5003
g4
(lp5004
I21
aI3
aI1
aI7
aI2
aI13
asg6
I5
ssI4
(dp5005
g4
(lp5006
I21
aI18
aI2
aI7
aI19
aI13
asg6
I5
sssI14
(dp5007
I0
(dp5008
g4
(lp5009
I21
aI3
aI14
asg6
I2
ssI1
(dp5010
g4
(lp5011
I21
aI18
aI2
aI13
aI14
asg6
I4
ssI2
(dp5012
g4
(lp5013
I21
aI3
aI10
aI17
aI13
aI14
asg6
I5
ssI3
(dp5014
g4
(lp5015
I21
aI18
aI2
aI7
aI1
aI3
aI14
asg6
I6
ssI4
(dp5016
g4
(lp5017
I21
aI3
aI1
aI7
aI2
aI13
aI14
asg6
I6
sssI15
(dp5018
I0
(dp5019
g4
(lp5020
I21
aI3
aI1
aI16
aI9
aI15
asg6
I5
ssI1
(dp5021
g4
(lp5022
I21
aI3
aI10
aI17
aI20
aI15
asg6
I5
ssI2
(dp5023
g4
(lp5024
I21
aI3
aI10
aI16
aI9
aI15
asg6
I5
ssI3
(dp5025
g4
(lp5026
I21
aI18
aI2
aI12
aI22
aI20
aI15
asg6
I6
ssI4
(dp5027
g4
(lp5028
I21
aI18
aI2
aI23
aI17
aI20
aI15
asg6
I6
sssI16
(dp5029
I0
(dp5030
g4
(lp5031
I21
aI3
aI1
aI16
asg6
I3
ssI1
(dp5032
g4
(lp5033
I21
aI3
aI10
aI16
asg6
I3
ssI2
(dp5034
g4
(lp5035
I21
aI18
aI2
aI4
aI16
asg6
I4
ssI3
(dp5036
g4
(lp5037
I21
aI3
aI11
aI10
aI16
asg6
I4
ssI4
(dp5038
g4
(lp5039
I21
aI18
aI2
aI7
aI1
aI16
asg6
I5
sssI17
(dp5040
I0
(dp5041
g4
(lp5042
I21
aI3
aI10
aI17
asg6
I3
ssI1
(dp5043
g4
(lp5044
I21
aI18
aI2
aI23
aI17
asg6
I4
ssI2
(dp5045
g4
(lp5046
I21
aI3
aI11
aI10
aI17
asg6
I4
ssI3
(dp5047
g4
(lp5048
I21
aI18
aI2
aI13
aI17
asg6
I4
ssI4
(dp5049
g4
(lp5050
I21
aI18
aI2
aI7
aI17
asg6
I4
sssI18
(dp5051
I0
(dp5052
g4
(lp5053
I21
aI18
asg6
I1
ssI1
(dp5054
g4
(lp5055
I21
aI3
aI1
aI7
aI2
aI18
asg6
I5
ssI2
(dp5056
g4
(lp5057
I21
aI3
aI10
aI12
aI2
aI18
asg6
I5
ssI3
(dp5058
g4
(lp5059
I21
aI3
aI14
aI13
aI2
aI18
asg6
I5
ssI4
(dp5060
g4
(lp5061
I21
aI3
aI10
aI17
aI7
aI2
aI18
asg6
I6
sssI19
(dp5062
I0
(dp5063
g4
(lp5064
I21
aI18
aI2
aI13
aI19
asg6
I4
ssI1
(dp5065
g4
(lp5066
I21
aI18
aI2
aI7
aI19
asg6
I4
ssI2
(dp5067
g4
(lp5068
I21
aI3
aI14
aI13
aI19
asg6
I4
ssI3
(dp5069
g4
(lp5070
I21
aI3
aI1
aI7
aI19
asg6
I4
ssI4
(dp5071
g4
(lp5072
I21
aI18
aI2
aI7
aI6
aI19
asg6
I5
sssI20
(dp5073
I0
(dp5074
g4
(lp5075
I21
aI3
aI10
aI17
aI20
asg6
I4
ssI1
(dp5076
g4
(lp5077
I21
aI18
aI2
aI12
aI22
aI20
asg6
I5
ssI2
(dp5078
g4
(lp5079
I21
aI18
aI2
aI23
aI17
aI20
asg6
I5
ssI3
(dp5080
g4
(lp5081
I21
aI3
aI11
aI10
aI17
aI20
asg6
I5
ssI4
(dp5082
g4
(lp5083
I21
aI3
aI10
aI12
aI22
aI20
asg6
I5
sssI22
(lp5084
(dp5085
g4
(lp5086
I21
aI18
aI2
aI12
aI22
asg6
I4
sa(dp5087
g4
(lp5088
I21
aI3
aI10
aI12
aI22
asg6
I4
sa(dp5089
g4
(lp5090
I21
aI3
aI11
aI10
aI12
aI22
asg6
I5
sa(dp5091
g4
(lp5092
I21
aI3
aI10
aI17
aI20
aI22
asg6
I5
sa(dp5093
g4
(lp5094
I21
aI18
aI2
aI23
aI17
aI20
aI22
asg6
I6
sasI23
(lp5095
(dp5096
g4
(lp5097
I21
aI18
aI2
aI23
asg6
I3
sa(dp5098
g4
(lp5099
I21
aI3
aI10
aI17
aI23
asg6
I4
sa(dp5100
g4
(lp5101
I21
aI18
aI2
aI13
aI17
aI23
asg6
I5
sa(dp5102
g4
(lp5103
I21
aI3
aI1
aI7
aI17
aI23
asg6
I5
sa(dp5104
g4
(lp5105
I21
aI3
aI10
aI12
aI2
aI23
asg6
I5
sassI22
(dp5106
I1
(dp5107
I0
(dp5108
g4
(lp5109
I22
aI12
aI10
aI16
aI1
asg6
I4
ssI1
(dp5110
g4
(lp5111
I22
aI20
aI17
aI7
aI1
asg6
I4
ssI2
(dp5112
g4
(lp5113
I22
aI12
aI10
aI3
aI1
asg6
I4
ssI3
(dp5114
g4
(lp5115
I22
aI12
aI2
aI7
aI1
asg6
I4
ssI4
(dp5116
g4
(lp5117
I22
aI12
aI2
aI4
aI16
aI1
asg6
I5
sssI2
(dp5118
I0
(dp5119
g4
(lp5120
I22
aI12
aI2
asg6
I2
ssI1
(dp5121
g4
(lp5122
I22
aI20
aI17
aI23
aI2
asg6
I4
ssI2
(dp5123
g4
(lp5124
I22
aI20
aI17
aI13
aI2
asg6
I4
ssI3
(dp5125
g4
(lp5126
I22
aI20
aI17
aI7
aI2
asg6
I4
ssI4
(dp5127
g4
(lp5128
I22
aI20
aI17
aI10
aI12
aI2
asg6
I5
sssI3
(dp5129
I0
(dp5130
g4
(lp5131
I22
aI12
aI10
aI3
asg6
I3
ssI1
(dp5132
g4
(lp5133
I22
aI12
aI10
aI11
aI3
asg6
I4
ssI2
(dp5134
g4
(lp5135
I22
aI20
aI17
aI10
aI3
asg6
I4
ssI3
(dp5136
g4
(lp5137
I22
aI12
aI10
aI16
aI1
aI3
asg6
I5
ssI4
(dp5138
g4
(lp5139
I22
aI20
aI17
aI10
aI11
aI3
asg6
I5
sssI4
(dp5140
I0
(dp5141
g4
(lp5142
I22
aI12
aI2
aI4
asg6
I3
ssI1
(dp5143
g4
(lp5144
I22
aI12
aI10
aI16
aI4
asg6
I4
ssI2
(dp5145
g4
(lp5146
I22
aI20
aI17
aI23
aI2
aI4
asg6
I5
ssI3
(dp5147
g4
(lp5148
I22
aI20
aI15
aI9
aI16
aI4
asg6
I5
ssI4
(dp5149
g4
(lp5150
I22
aI20
aI17
aI10
aI16
aI4
asg6
I5
sssI5
(dp5151
I0
(dp5152
g4
(lp5153
I22
aI12
aI10
aI16
aI5
asg6
I4
ssI1
(dp5154
g4
(lp5155
I22
aI20
aI15
aI9
aI8
aI5
asg6
I5
ssI2
(dp5156
g4
(lp5157
I22
aI12
aI2
aI4
aI16
aI5
asg6
I5
ssI3
(dp5158
g4
(lp5159
I22
aI20
aI17
aI10
aI16
aI5
asg6
I5
ssI4
(dp5160
g4
(lp5161
I22
aI20
aI15
aI9
aI16
aI5
asg6
I5
sssI6
(dp5162
I0
(dp5163
g4
(lp5164
I22
aI20
aI17
aI7
aI6
asg6
I4
ssI1
(dp5165
g4
(lp5166
I22
aI12
aI2
aI7
aI6
asg6
I4
ssI2
(dp5167
g4
(lp5168
I22
aI20
aI17
aI13
aI19
aI6
asg6
I5
ssI3
(dp5169
g4
(lp5170
I22
aI12
aI10
aI17
aI7
aI6
asg6
I5
ssI4
(dp5171
g4
(lp5172
I22
aI20
aI17
aI7
aI19
aI6
asg6
I5
sssI7
(dp5173
I0
(dp5174
g4
(lp5175
I22
aI20
aI17
aI7
asg6
I3
ssI1
(dp5176
g4
(lp5177
I22
aI12
aI2
aI7
asg6
I3
ssI2
(dp5178
g4
(lp5179
I22
aI12
aI10
aI17
aI7
asg6
I4
ssI3
(dp5180
g4
(lp5181
I22
aI12
aI10
aI16
aI1
aI7
asg6
I5
ssI4
(dp5182
g4
(lp5183
I22
aI20
aI17
aI23
aI2
aI7
asg6
I5
sssI8
(dp5184
I0
(dp5185
g4
(lp5186
I22
aI20
aI15
aI9
aI8
asg6
I4
ssI1
(dp5187
g4
(lp5188
I22
aI12
aI10
aI16
aI5
aI8
asg6
I5
ssI2
(dp5189
g4
(lp5190
I22
aI12
aI10
aI16
aI9
aI8
asg6
I5
ssI3
(dp5191
g4
(lp5192
I22
aI12
aI2
aI4
aI16
aI5
aI8
asg6
I6
ssI4
(dp5193
g4
(lp5194
I22
aI20
aI17
aI10
aI16
aI5
aI8
asg6
I6
sssI9
(dp5195
I0
(dp5196
g4
(lp5197
I22
aI20
aI15
aI9
asg6
I3
ssI1
(dp5198
g4
(lp5199
I22
aI12
aI10
aI16
aI9
asg6
I4
ssI2
(dp5200
g4
(lp5201
I22
aI12
aI2
aI4
aI16
aI9
asg6
I5
ssI3
(dp5202
g4
(lp5203
I22
aI20
aI17
aI10
aI16
aI9
asg6
I5
ssI4
(dp5204
g4
(lp5205
I22
aI12
aI10
aI17
aI20
aI15
aI9
asg6
I6
sssI10
(dp5206
I0
(dp5207
g4
(lp5208
I22
aI12
aI10
asg6
I2
ssI1
(dp5209
g4
(lp5210
I22
aI20
aI17
aI10
asg6
I3
ssI2
(dp5211
g4
(lp5212
I22
aI20
aI15
aI9
aI16
aI10
asg6
I5
ssI3
(dp5213
g4
(lp5214
I22
aI12
aI2
aI7
aI17
aI10
asg6
I5
ssI4
(dp5215
g4
(lp5216
I22
aI12
aI2
aI4
aI16
aI10
asg6
I5
sssI11
(dp5217
I0
(dp5218
g4
(lp5219
I22
aI12
aI10
aI11
asg6
I3
ssI1
(dp5220
g4
(lp5221
I22
aI12
aI10
aI3
aI11
asg6
I4
ssI2
(dp5222
g4
(lp5223
I22
aI20
aI17
aI10
aI11
asg6
I4
ssI3
(dp5224
g4
(lp5225
I22
aI20
aI17
aI10
aI3
aI11
asg6
I5
ssI4
(dp5226
g4
(lp5227
I22
aI12
aI10
aI16
aI1
aI3
aI11
asg6
I6
sssI12
(dp5228
I0
(dp5229
g4
(lp5230
I22
aI12
asg6
I1
ssI1
(dp5231
g4
(lp5232
I22
aI20
aI17
aI10
aI12
asg6
I4
ssI2
(dp5233
g4
(lp5234
I22
aI20
aI17
aI23
aI2
aI12
asg6
I5
ssI3
(dp5235
g4
(lp5236
I22
aI20
aI17
aI13
aI2
aI12
asg6
I5
ssI4
(dp5237
g4
(lp5238
I22
aI20
aI17
aI7
aI2
aI12
asg6
I5
sssI13
(dp5239
I0
(dp5240
g4
(lp5241
I22
aI20
aI17
aI13
asg6
I3
ssI1
(dp5242
g4
(lp5243
I22
aI12
aI2
aI13
asg6
I3
ssI2
(dp5244
g4
(lp5245
I22
aI12
aI10
aI17
aI13
asg6
I4
ssI3
(dp5246
g4
(lp5247
I22
aI12
aI2
aI7
aI19
aI13
asg6
I5
ssI4
(dp5248
g4
(lp5249
I22
aI20
aI17
aI23
aI2
aI13
asg6
I5
sssI14
(dp5250
I0
(dp5251
g4
(lp5252
I22
aI20
aI17
aI13
aI14
asg6
I4
ssI1
(dp5253
g4
(lp5254
I22
aI12
aI10
aI3
aI14
asg6
I4
ssI2
(dp5255
g4
(lp5256
I22
aI12
aI2
aI13
aI14
asg6
I4
ssI3
(dp5257
g4
(lp5258
I22
aI12
aI10
aI17
aI13
aI14
asg6
I5
ssI4
(dp5259
g4
(lp5260
I22
aI12
aI10
aI11
aI3
aI14
asg6
I5
sssI15
(dp5261
I0
(dp5262
g4
(lp5263
I22
aI20
aI15
asg6
I2
ssI1
(dp5264
g4
(lp5265
I22
aI12
aI10
aI16
aI9
aI15
asg6
I5
ssI2
(dp5266
g4
(lp5267
I22
aI12
aI10
aI17
aI20
aI15
asg6
I5
ssI3
(dp5268
g4
(lp5269
I22
aI12
aI2
aI4
aI16
aI9
aI15
asg6
I6
ssI4
(dp5270
g4
(lp5271
I22
aI20
aI17
aI10
aI16
aI9
aI15
asg6
I6
sssI16
(dp5272
I0
(dp5273
g4
(lp5274
I22
aI12
aI10
aI16
asg6
I3
ssI1
(dp5275
g4
(lp5276
I22
aI12
aI2
aI4
aI16
asg6
I4
ssI2
(dp5277
g4
(lp5278
I22
aI20
aI17
aI10
aI16
asg6
I4
ssI3
(dp5279
g4
(lp5280
I22
aI20
aI15
aI9
aI16
asg6
I4
ssI4
(dp5281
g4
(lp5282
I22
aI12
aI10
aI3
aI1
aI16
asg6
I5
sssI17
(dp5283
I0
(dp5284
g4
(lp5285
I22
aI20
aI17
asg6
I2
ssI1
(dp5286
g4
(lp5287
I22
aI12
aI10
aI17
asg6
I3
ssI2
(dp5288
g4
(lp5289
I22
aI12
aI2
aI23
aI17
asg6
I4
ssI3
(dp5290
g4
(lp5291
I22
aI12
aI2
aI13
aI17
asg6
I4
ssI4
(dp5292
g4
(lp5293
I22
aI12
aI2
aI7
aI17
asg6
I4
sssI18
(dp5294
I0
(dp5295
g4
(lp5296
I22
aI12
aI2
aI18
asg6
I3
ssI1
(dp5297
g4
(lp5298
I22
aI12
aI10
aI3
aI21
aI18
asg6
I5
ssI2
(dp5299
g4
(lp5300
I22
aI20
aI17
aI23
aI2
aI18
asg6
I5
ssI3
(dp5301
g4
(lp5302
I22
aI20
aI17
aI7
aI2
aI18
asg6
I5
ssI4
(dp5303
g4
(lp5304
I22
aI20
aI17
aI13
aI2
aI18
asg6
I5
sssI19
(dp5305
I0
(dp5306
g4
(lp5307
I22
aI20
aI17
aI13
aI19
asg6
I4
ssI1
(dp5308
g4
(lp5309
I22
aI20
aI17
aI7
aI19
asg6
I4
ssI2
(dp5310
g4
(lp5311
I22
aI12
aI2
aI13
aI19
asg6
I4
ssI3
(dp5312
g4
(lp5313
I22
aI12
aI2
aI7
aI19
asg6
I4
ssI4
(dp5314
g4
(lp5315
I22
aI12
aI10
aI17
aI13
aI19
asg6
I5
sssI20
(dp5316
I0
(dp5317
g4
(lp5318
I22
aI20
asg6
I1
ssI1
(dp5319
g4
(lp5320
I22
aI12
aI10
aI17
aI20
asg6
I4
ssI2
(dp5321
g4
(lp5322
I22
aI12
aI2
aI7
aI17
aI20
asg6
I5
ssI3
(dp5323
g4
(lp5324
I22
aI12
aI2
aI23
aI17
aI20
asg6
I5
ssI4
(dp5325
g4
(lp5326
I22
aI12
aI2
aI13
aI17
aI20
asg6
I5
sssI21
(dp5327
I0
(dp5328
g4
(lp5329
I22
aI12
aI2
aI18
aI21
asg6
I4
ssI1
(dp5330
g4
(lp5331
I22
aI12
aI10
aI3
aI21
asg6
I4
ssI2
(dp5332
g4
(lp5333
I22
aI12
aI10
aI11
aI3
aI21
asg6
I5
ssI3
(dp5334
g4
(lp5335
I22
aI20
aI17
aI10
aI3
aI21
asg6
I5
ssI4
(dp5336
g4
(lp5337
I22
aI20
aI17
aI23
aI2
aI18
aI21
asg6
I6
sssI23
(lp5338
(dp5339
g4
(lp5340
I22
aI20
aI17
aI23
asg6
I3
sa(dp5341
g4
(lp5342
I22
aI12
aI2
aI23
asg6
I3
sa(dp5343
g4
(lp5344
I22
aI12
aI10
aI17
aI23
asg6
I4
sa(dp5345
g4
(lp5346
I22
aI20
aI17
aI7
aI2
aI23
asg6
I5
sa(dp5347
g4
(lp5348
I22
aI12
aI2
aI13
aI17
aI23
asg6
I5
sassI23
(dp5349
I1
(dp5350
I0
(dp5351
g4
(lp5352
I23
aI17
aI7
aI1
asg6
I3
ssI1
(dp5353
g4
(lp5354
I23
aI2
aI7
aI1
asg6
I3
ssI2
(dp5355
g4
(lp5356
I23
aI17
aI10
aI16
aI1
asg6
I4
ssI3
(dp5357
g4
(lp5358
I23
aI17
aI10
aI3
aI1
asg6
I4
ssI4
(dp5359
g4
(lp5360
I23
aI2
aI4
aI16
aI1
asg6
I4
sssI2
(dp5361
I0
(dp5362
g4
(lp5363
I23
aI2
asg6
I1
ssI1
(dp5364
g4
(lp5365
I23
aI17
aI13
aI2
asg6
I3
ssI2
(dp5366
g4
(lp5367
I23
aI17
aI7
aI2
asg6
I3
ssI3
(dp5368
g4
(lp5369
I23
aI17
aI10
aI12
aI2
asg6
I4
ssI4
(dp5370
g4
(lp5371
I23
aI17
aI7
aI19
aI13
aI2
asg6
I5
sssI3
(dp5372
I0
(dp5373
g4
(lp5374
I23
aI17
aI10
aI3
asg6
I3
ssI1
(dp5375
g4
(lp5376
I23
aI17
aI7
aI1
aI3
asg6
I4
ssI2
(dp5377
g4
(lp5378
I23
aI2
aI12
aI10
aI3
asg6
I4
ssI3
(dp5379
g4
(lp5380
I23
aI17
aI10
aI11
aI3
asg6
I4
ssI4
(dp5381
g4
(lp5382
I23
aI2
aI7
aI1
aI3
asg6
I4
sssI4
(dp5383
I0
(dp5384
g4
(lp5385
I23
aI2
aI4
asg6
I2
ssI1
(dp5386
g4
(lp5387
I23
aI17
aI10
aI16
aI4
asg6
I4
ssI2
(dp5388
g4
(lp5389
I23
aI17
aI13
aI2
aI4
asg6
I4
ssI3
(dp5390
g4
(lp5391
I23
aI17
aI7
aI2
aI4
asg6
I4
ssI4
(dp5392
g4
(lp5393
I23
aI17
aI7
aI1
aI16
aI4
asg6
I5
sssI5
(dp5394
I0
(dp5395
g4
(lp5396
I23
aI17
aI10
aI16
aI5
asg6
I4
ssI1
(dp5397
g4
(lp5398
I23
aI2
aI4
aI16
aI5
asg6
I4
ssI2
(dp5399
g4
(lp5400
I23
aI2
aI12
aI10
aI16
aI5
asg6
I5
ssI3
(dp5401
g4
(lp5402
I23
aI17
aI7
aI1
aI16
aI5
asg6
I5
ssI4
(dp5403
g4
(lp5404
I23
aI2
aI7
aI1
aI16
aI5
asg6
I5
sssI6
(dp5405
I0
(dp5406
g4
(lp5407
I23
aI2
aI7
aI6
asg6
I3
ssI1
(dp5408
g4
(lp5409
I23
aI17
aI7
aI6
asg6
I3
ssI2
(dp5410
g4
(lp5411
I23
aI17
aI13
aI19
aI6
asg6
I4
ssI3
(dp5412
g4
(lp5413
I23
aI17
aI7
aI19
aI6
asg6
I4
ssI4
(dp5414
g4
(lp5415
I23
aI2
aI13
aI19
aI6
asg6
I4
sssI7
(dp5416
I0
(dp5417
g4
(lp5418
I23
aI17
aI7
asg6
I2
ssI1
(dp5419
g4
(lp5420
I23
aI2
aI7
asg6
I2
ssI2
(dp5421
g4
(lp5422
I23
aI2
aI13
aI17
aI7
asg6
I4
ssI3
(dp5423
g4
(lp5424
I23
aI17
aI13
aI19
aI7
asg6
I4
ssI4
(dp5425
g4
(lp5426
I23
aI17
aI13
aI2
aI7
asg6
I4
sssI8
(dp5427
I0
(dp5428
g4
(lp5429
I23
aI17
aI10
aI16
aI9
aI8
asg6
I5
ssI1
(dp5430
g4
(lp5431
I23
aI17
aI10
aI16
aI5
aI8
asg6
I5
ssI2
(dp5432
g4
(lp5433
I23
aI17
aI20
aI15
aI9
aI8
asg6
I5
ssI3
(dp5434
g4
(lp5435
I23
aI2
aI4
aI16
aI9
aI8
asg6
I5
ssI4
(dp5436
g4
(lp5437
I23
aI2
aI4
aI16
aI5
aI8
asg6
I5
sssI9
(dp5438
I0
(dp5439
g4
(lp5440
I23
aI17
aI10
aI16
aI9
asg6
I4
ssI1
(dp5441
g4
(lp5442
I23
aI17
aI20
aI15
aI9
asg6
I4
ssI2
(dp5443
g4
(lp5444
I23
aI2
aI4
aI16
aI9
asg6
I4
ssI3
(dp5445
g4
(lp5446
I23
aI2
aI12
aI10
aI16
aI9
asg6
I5
ssI4
(dp5447
g4
(lp5448
I23
aI17
aI7
aI1
aI16
aI9
asg6
I5
sssI10
(dp5449
I0
(dp5450
g4
(lp5451
I23
aI17
aI10
asg6
I2
ssI1
(dp5452
g4
(lp5453
I23
aI2
aI12
aI10
asg6
I3
ssI2
(dp5454
g4
(lp5455
I23
aI2
aI7
aI17
aI10
asg6
I4
ssI3
(dp5456
g4
(lp5457
I23
aI2
aI4
aI16
aI10
asg6
I4
ssI4
(dp5458
g4
(lp5459
I23
aI2
aI13
aI17
aI10
asg6
I4
sssI11
(dp5460
I0
(dp5461
g4
(lp5462
I23
aI17
aI10
aI11
asg6
I3
ssI1
(dp5463
g4
(lp5464
I23
aI17
aI10
aI3
aI11
asg6
I4
ssI2
(dp5465
g4
(lp5466
I23
aI2
aI12
aI10
aI11
asg6
I4
ssI3
(dp5467
g4
(lp5468
I23
aI2
aI7
aI17
aI10
aI11
asg6
I5
ssI4
(dp5469
g4
(lp5470
I23
aI17
aI7
aI1
aI3
aI11
asg6
I5
sssI12
(dp5471
I0
(dp5472
g4
(lp5473
I23
aI2
aI12
asg6
I2
ssI1
(dp5474
g4
(lp5475
I23
aI17
aI10
aI12
asg6
I3
ssI2
(dp5476
g4
(lp5477
I23
aI17
aI13
aI2
aI12
asg6
I4
ssI3
(dp5478
g4
(lp5479
I23
aI17
aI20
aI22
aI12
asg6
I4
ssI4
(dp5480
g4
(lp5481
I23
aI17
aI7
aI2
aI12
asg6
I4
sssI13
(dp5482
I0
(dp5483
g4
(lp5484
I23
aI17
aI13
asg6
I2
ssI1
(dp5485
g4
(lp5486
I23
aI2
aI13
asg6
I2
ssI2
(dp5487
g4
(lp5488
I23
aI2
aI7
aI17
aI13
asg6
I4
ssI3
(dp5489
g4
(lp5490
I23
aI17
aI7
aI19
aI13
asg6
I4
ssI4
(dp5491
g4
(lp5492
I23
aI17
aI7
aI2
aI13
asg6
I4
sssI14
(dp5493
I0
(dp5494
g4
(lp5495
I23
aI17
aI13
aI14
asg6
I3
ssI1
(dp5496
g4
(lp5497
I23
aI2
aI13
aI14
asg6
I3
ssI2
(dp5498
g4
(lp5499
I23
aI17
aI10
aI3
aI14
asg6
I4
ssI3
(dp5500
g4
(lp5501
I23
aI2
aI7
aI17
aI13
aI14
asg6
I5
ssI4
(dp5502
g4
(lp5503
I23
aI2
aI7
aI19
aI13
aI14
asg6
I5
sssI15
(dp5504
I0
(dp5505
g4
(lp5506
I23
aI17
aI20
aI15
asg6
I3
ssI1
(dp5507
g4
(lp5508
I23
aI17
aI10
aI16
aI9
aI15
asg6
I5
ssI2
(dp5509
g4
(lp5510
I23
aI2
aI12
aI22
aI20
aI15
asg6
I5
ssI3
(dp5511
g4
(lp5512
I23
aI2
aI7
aI17
aI20
aI15
asg6
I5
ssI4
(dp5513
g4
(lp5514
I23
aI2
aI4
aI16
aI9
aI15
asg6
I5
sssI16
(dp5515
I0
(dp5516
g4
(lp5517
I23
aI17
aI10
aI16
asg6
I3
ssI1
(dp5518
g4
(lp5519
I23
aI2
aI4
aI16
asg6
I3
ssI2
(dp5520
g4
(lp5521
I23
aI2
aI12
aI10
aI16
asg6
I4
ssI3
(dp5522
g4
(lp5523
I23
aI17
aI7
aI1
aI16
asg6
I4
ssI4
(dp5524
g4
(lp5525
I23
aI2
aI7
aI1
aI16
asg6
I4
sssI17
(dp5526
I0
(dp5527
g4
(lp5528
I23
aI17
asg6
I1
ssI1
(dp5529
g4
(lp5530
I23
aI2
aI7
aI17
asg6
I3
ssI2
(dp5531
g4
(lp5532
I23
aI2
aI13
aI17
asg6
I3
ssI3
(dp5533
g4
(lp5534
I23
aI2
aI12
aI10
aI17
asg6
I4
ssI4
(dp5535
g4
(lp5536
I23
aI2
aI13
aI19
aI7
aI17
asg6
I5
sssI18
(dp5537
I0
(dp5538
g4
(lp5539
I23
aI2
aI18
asg6
I2
ssI1
(dp5540
g4
(lp5541
I23
aI17
aI13
aI2
aI18
asg6
I4
ssI2
(dp5542
g4
(lp5543
I23
aI17
aI7
aI2
aI18
asg6
I4
ssI3
(dp5544
g4
(lp5545
I23
aI17
aI10
aI3
aI21
aI18
asg6
I5
ssI4
(dp5546
g4
(lp5547
I23
aI17
aI10
aI12
aI2
aI18
asg6
I5
sssI19
(dp5548
I0
(dp5549
g4
(lp5550
I23
aI17
aI13
aI19
asg6
I3
ssI1
(dp5551
g4
(lp5552
I23
aI2
aI7
aI19
asg6
I3
ssI2
(dp5553
g4
(lp5554
I23
aI2
aI13
aI19
asg6
I3
ssI3
(dp5555
g4
(lp5556
I23
aI17
aI7
aI19
asg6
I3
ssI4
(dp5557
g4
(lp5558
I23
aI17
aI7
aI6
aI19
asg6
I4
sssI20
(dp5559
I0
(dp5560
g4
(lp5561
I23
aI17
aI20
asg6
I2
ssI1
(dp5562
g4
(lp5563
I23
aI2
aI12
aI22
aI20
asg6
I4
ssI2
(dp5564
g4
(lp5565
I23
aI2
aI7
aI17
aI20
asg6
I4
ssI3
(dp5566
g4
(lp5567
I23
aI2
aI13
aI17
aI20
asg6
I4
ssI4
(dp5568
g4
(lp5569
I23
aI17
aI10
aI12
aI22
aI20
asg6
I5
sssI21
(dp5570
I0
(dp5571
g4
(lp5572
I23
aI2
aI18
aI21
asg6
I3
ssI1
(dp5573
g4
(lp5574
I23
aI17
aI10
aI3
aI21
asg6
I4
ssI2
(dp5575
g4
(lp5576
I23
aI17
aI13
aI2
aI18
aI21
asg6
I5
ssI3
(dp5577
g4
(lp5578
I23
aI17
aI7
aI1
aI3
aI21
asg6
I5
ssI4
(dp5579
g4
(lp5580
I23
aI2
aI12
aI10
aI3
aI21
asg6
I5
sssI22
(dp5581
I0
(dp5582
g4
(lp5583
I23
aI17
aI20
aI22
asg6
I3
ssI1
(dp5584
g4
(lp5585
I23
aI2
aI12
aI22
asg6
I3
ssI2
(dp5586
g4
(lp5587
I23
aI17
aI10
aI12
aI22
asg6
I4
ssI3
(dp5588
g4
(lp5589
I23
aI2
aI7
aI17
aI20
aI22
asg6
I5
ssI4
(dp5590
g4
(lp5591
I23
aI17
aI13
aI2
aI12
aI22
asg6
I5
ssss.